; ModuleID = 'C:/Users/User/Documents/sistema_de_posicionamiento_REVISAR/Nueva_carpeta2/Early_Adopter-Pos_System/Miguel_source/HLS/Det_Max_v3/Max_Det/solution1/.autopilot/db/a.o.3.bc'
target datalayout = "e-p:64:64:64-i1:8:8-i8:8:8-i16:16:16-i32:32:32-i64:64:64-f32:32:32-f64:64:64-v64:64:64-v128:128:128-a0:0:64-s0:64:64-f80:128:128-n8:16:32:64-S128"
target triple = "x86_64-w64-mingw32"

@max_det_str = internal unnamed_addr constant [8 x i8] c"max_det\00" ; [#uses=1 type=[8 x i8]*]
@llvm_global_ctors_1 = appending global [1 x void ()*] [void ()* @_GLOBAL__I_a] ; [#uses=0 type=[1 x void ()*]*]
@llvm_global_ctors_0 = appending global [1 x i32] [i32 65535] ; [#uses=0 type=[1 x i32]*]
@contador = internal unnamed_addr global i32 0, align 4 ; [#uses=2 type=i32*]
@comp_vsum_4_V = internal unnamed_addr global i26 0 ; [#uses=2 type=i26*]
@comp_vsum_3_V = internal unnamed_addr global i26 0 ; [#uses=2 type=i26*]
@comp_vsum_2_V = internal unnamed_addr global i26 0 ; [#uses=2 type=i26*]
@comp_vsum_1_V = internal unnamed_addr global i26 0 ; [#uses=2 type=i26*]
@comp_34_V = internal unnamed_addr global i26 0   ; [#uses=2 type=i26*]
@comp_33_V = internal unnamed_addr global i26 0   ; [#uses=2 type=i26*]
@comp_32_V = internal unnamed_addr global i26 0   ; [#uses=2 type=i26*]
@comp_31_V = internal unnamed_addr global i26 0   ; [#uses=2 type=i26*]
@comp_24_V = internal unnamed_addr global i26 0   ; [#uses=2 type=i26*]
@comp_23_V = internal unnamed_addr global i26 0   ; [#uses=2 type=i26*]
@comp_22_V = internal unnamed_addr global i26 0   ; [#uses=2 type=i26*]
@comp_21_V = internal unnamed_addr global i26 0   ; [#uses=2 type=i26*]
@comp_14_V = internal unnamed_addr global i26 0   ; [#uses=2 type=i26*]
@comp_13_V = internal unnamed_addr global i26 0   ; [#uses=2 type=i26*]
@comp_12_V = internal unnamed_addr global i26 0   ; [#uses=2 type=i26*]
@comp_11_V = internal unnamed_addr global i26 0   ; [#uses=2 type=i26*]
@p_str3 = private unnamed_addr constant [10 x i8] c"s_axilite\00", align 1 ; [#uses=1 type=[10 x i8]*]
@p_str2 = private unnamed_addr constant [1 x i8] zeroinitializer, align 1 ; [#uses=71 type=[1 x i8]*]
@p_str1 = private unnamed_addr constant [5 x i8] c"both\00", align 1 ; [#uses=13 type=[5 x i8]*]
@p_str = private unnamed_addr constant [5 x i8] c"axis\00", align 1 ; [#uses=13 type=[5 x i8]*]

; [#uses=0]
define void @max_det(i32* %vsum_1_V, i32* %vlr_1_V, i32* %vbt_1_V, i32* %out_peaks_V, i32* %vsum_2_V, i32* %vlr_2_V, i32* %vbt_2_V, i32* %vsum_3_V, i32* %vlr_3_V, i32* %vbt_3_V, i32* %vsum_4_V, i32* %vlr_4_V, i32* %vbt_4_V) {
codeRepl:
  call void (...)* @_ssdm_op_SpecBitsMap(i32* %vsum_1_V), !map !48
  call void (...)* @_ssdm_op_SpecBitsMap(i32* %vlr_1_V), !map !52
  call void (...)* @_ssdm_op_SpecBitsMap(i32* %vbt_1_V), !map !56
  call void (...)* @_ssdm_op_SpecBitsMap(i32* %out_peaks_V), !map !60
  call void (...)* @_ssdm_op_SpecBitsMap(i32* %vsum_2_V), !map !66
  call void (...)* @_ssdm_op_SpecBitsMap(i32* %vlr_2_V), !map !70
  call void (...)* @_ssdm_op_SpecBitsMap(i32* %vbt_2_V), !map !74
  call void (...)* @_ssdm_op_SpecBitsMap(i32* %vsum_3_V), !map !78
  call void (...)* @_ssdm_op_SpecBitsMap(i32* %vlr_3_V), !map !82
  call void (...)* @_ssdm_op_SpecBitsMap(i32* %vbt_3_V), !map !86
  call void (...)* @_ssdm_op_SpecBitsMap(i32* %vsum_4_V), !map !90
  call void (...)* @_ssdm_op_SpecBitsMap(i32* %vlr_4_V), !map !94
  call void (...)* @_ssdm_op_SpecBitsMap(i32* %vbt_4_V), !map !98
  call void (...)* @_ssdm_op_SpecTopModule([8 x i8]* @max_det_str) nounwind
  %peaks_V = alloca [12 x i26], align 4           ; [#uses=13 type=[12 x i26]*]
  call void @llvm.dbg.value(metadata !{i32* %vsum_1_V}, i64 0, metadata !102), !dbg !1346 ; [debug line = 3:25] [debug variable = vsum_1.V]
  call void @llvm.dbg.value(metadata !{i32* %vlr_1_V}, i64 0, metadata !1347), !dbg !1349 ; [debug line = 3:44] [debug variable = vlr_1.V]
  call void @llvm.dbg.value(metadata !{i32* %vbt_1_V}, i64 0, metadata !1350), !dbg !1352 ; [debug line = 3:62] [debug variable = vbt_1.V]
  call void @llvm.dbg.value(metadata !{i32* %out_peaks_V}, i64 0, metadata !1353), !dbg !1355 ; [debug line = 3:81] [debug variable = out_peaks.V]
  call void @llvm.dbg.value(metadata !{i32* %vsum_2_V}, i64 0, metadata !1356), !dbg !1358 ; [debug line = 3:103] [debug variable = vsum_2.V]
  call void @llvm.dbg.value(metadata !{i32* %vlr_2_V}, i64 0, metadata !1359), !dbg !1361 ; [debug line = 3:122] [debug variable = vlr_2.V]
  call void @llvm.dbg.value(metadata !{i32* %vbt_2_V}, i64 0, metadata !1362), !dbg !1364 ; [debug line = 3:140] [debug variable = vbt_2.V]
  call void @llvm.dbg.value(metadata !{i32* %vsum_3_V}, i64 0, metadata !1365), !dbg !1367 ; [debug line = 3:158] [debug variable = vsum_3.V]
  call void @llvm.dbg.value(metadata !{i32* %vlr_3_V}, i64 0, metadata !1368), !dbg !1370 ; [debug line = 3:177] [debug variable = vlr_3.V]
  call void @llvm.dbg.value(metadata !{i32* %vbt_3_V}, i64 0, metadata !1371), !dbg !1373 ; [debug line = 3:195] [debug variable = vbt_3.V]
  call void @llvm.dbg.value(metadata !{i32* %vsum_4_V}, i64 0, metadata !1374), !dbg !1376 ; [debug line = 3:213] [debug variable = vsum_4.V]
  call void @llvm.dbg.value(metadata !{i32* %vlr_4_V}, i64 0, metadata !1377), !dbg !1379 ; [debug line = 3:232] [debug variable = vlr_4.V]
  call void @llvm.dbg.value(metadata !{i32* %vbt_4_V}, i64 0, metadata !1380), !dbg !1382 ; [debug line = 3:250] [debug variable = vbt_4.V]
  call void (...)* @_ssdm_op_SpecInterface(i32* %vbt_4_V, [5 x i8]* @p_str, i32 1, i32 1, [5 x i8]* @p_str1, i32 0, i32 1, [1 x i8]* @p_str2, [1 x i8]* @p_str2, [1 x i8]* @p_str2, i32 0, i32 0, i32 0, i32 0, [1 x i8]* @p_str2, [1 x i8]* @p_str2), !dbg !1383 ; [debug line = 5:1]
  call void (...)* @_ssdm_op_SpecInterface(i32* %vlr_4_V, [5 x i8]* @p_str, i32 1, i32 1, [5 x i8]* @p_str1, i32 0, i32 1, [1 x i8]* @p_str2, [1 x i8]* @p_str2, [1 x i8]* @p_str2, i32 0, i32 0, i32 0, i32 0, [1 x i8]* @p_str2, [1 x i8]* @p_str2), !dbg !1385 ; [debug line = 6:1]
  call void (...)* @_ssdm_op_SpecInterface(i32* %vsum_4_V, [5 x i8]* @p_str, i32 1, i32 1, [5 x i8]* @p_str1, i32 0, i32 1, [1 x i8]* @p_str2, [1 x i8]* @p_str2, [1 x i8]* @p_str2, i32 0, i32 0, i32 0, i32 0, [1 x i8]* @p_str2, [1 x i8]* @p_str2), !dbg !1386 ; [debug line = 7:1]
  call void (...)* @_ssdm_op_SpecInterface(i32* %vbt_3_V, [5 x i8]* @p_str, i32 1, i32 1, [5 x i8]* @p_str1, i32 0, i32 1, [1 x i8]* @p_str2, [1 x i8]* @p_str2, [1 x i8]* @p_str2, i32 0, i32 0, i32 0, i32 0, [1 x i8]* @p_str2, [1 x i8]* @p_str2), !dbg !1387 ; [debug line = 8:1]
  call void (...)* @_ssdm_op_SpecInterface(i32* %vlr_3_V, [5 x i8]* @p_str, i32 1, i32 1, [5 x i8]* @p_str1, i32 0, i32 1, [1 x i8]* @p_str2, [1 x i8]* @p_str2, [1 x i8]* @p_str2, i32 0, i32 0, i32 0, i32 0, [1 x i8]* @p_str2, [1 x i8]* @p_str2), !dbg !1388 ; [debug line = 9:1]
  call void (...)* @_ssdm_op_SpecInterface(i32* %vsum_3_V, [5 x i8]* @p_str, i32 1, i32 1, [5 x i8]* @p_str1, i32 0, i32 1, [1 x i8]* @p_str2, [1 x i8]* @p_str2, [1 x i8]* @p_str2, i32 0, i32 0, i32 0, i32 0, [1 x i8]* @p_str2, [1 x i8]* @p_str2), !dbg !1389 ; [debug line = 10:1]
  call void (...)* @_ssdm_op_SpecInterface(i32* %vbt_2_V, [5 x i8]* @p_str, i32 1, i32 1, [5 x i8]* @p_str1, i32 0, i32 1, [1 x i8]* @p_str2, [1 x i8]* @p_str2, [1 x i8]* @p_str2, i32 0, i32 0, i32 0, i32 0, [1 x i8]* @p_str2, [1 x i8]* @p_str2), !dbg !1390 ; [debug line = 11:1]
  call void (...)* @_ssdm_op_SpecInterface(i32* %vlr_2_V, [5 x i8]* @p_str, i32 1, i32 1, [5 x i8]* @p_str1, i32 0, i32 1, [1 x i8]* @p_str2, [1 x i8]* @p_str2, [1 x i8]* @p_str2, i32 0, i32 0, i32 0, i32 0, [1 x i8]* @p_str2, [1 x i8]* @p_str2), !dbg !1391 ; [debug line = 12:1]
  call void (...)* @_ssdm_op_SpecInterface(i32* %vsum_2_V, [5 x i8]* @p_str, i32 1, i32 1, [5 x i8]* @p_str1, i32 0, i32 1, [1 x i8]* @p_str2, [1 x i8]* @p_str2, [1 x i8]* @p_str2, i32 0, i32 0, i32 0, i32 0, [1 x i8]* @p_str2, [1 x i8]* @p_str2), !dbg !1392 ; [debug line = 13:1]
  call void (...)* @_ssdm_op_SpecInterface(i32* %out_peaks_V, [5 x i8]* @p_str, i32 1, i32 1, [5 x i8]* @p_str1, i32 0, i32 9, [1 x i8]* @p_str2, [1 x i8]* @p_str2, [1 x i8]* @p_str2, i32 0, i32 0, i32 0, i32 0, [1 x i8]* @p_str2, [1 x i8]* @p_str2), !dbg !1393 ; [debug line = 14:1]
  call void (...)* @_ssdm_op_SpecInterface(i32* %vbt_1_V, [5 x i8]* @p_str, i32 1, i32 1, [5 x i8]* @p_str1, i32 0, i32 1, [1 x i8]* @p_str2, [1 x i8]* @p_str2, [1 x i8]* @p_str2, i32 0, i32 0, i32 0, i32 0, [1 x i8]* @p_str2, [1 x i8]* @p_str2), !dbg !1394 ; [debug line = 15:1]
  call void (...)* @_ssdm_op_SpecInterface(i32* %vlr_1_V, [5 x i8]* @p_str, i32 1, i32 1, [5 x i8]* @p_str1, i32 0, i32 1, [1 x i8]* @p_str2, [1 x i8]* @p_str2, [1 x i8]* @p_str2, i32 0, i32 0, i32 0, i32 0, [1 x i8]* @p_str2, [1 x i8]* @p_str2), !dbg !1395 ; [debug line = 16:1]
  call void (...)* @_ssdm_op_SpecInterface(i32* %vsum_1_V, [5 x i8]* @p_str, i32 1, i32 1, [5 x i8]* @p_str1, i32 0, i32 1, [1 x i8]* @p_str2, [1 x i8]* @p_str2, [1 x i8]* @p_str2, i32 0, i32 0, i32 0, i32 0, [1 x i8]* @p_str2, [1 x i8]* @p_str2), !dbg !1396 ; [debug line = 17:1]
  call void (...)* @_ssdm_op_SpecInterface(i32 0, [10 x i8]* @p_str3, i32 0, i32 0, [1 x i8]* @p_str2, i32 0, i32 0, [1 x i8]* @p_str2, [1 x i8]* @p_str2, [1 x i8]* @p_str2, i32 0, i32 0, i32 0, i32 0, [1 x i8]* @p_str2, [1 x i8]* @p_str2) nounwind, !dbg !1397 ; [debug line = 18:1]
  call void @llvm.dbg.declare(metadata !{[12 x i26]* %peaks_V}, metadata !1398), !dbg !1404 ; [debug line = 52:13] [debug variable = peaks.V]
  call void @llvm.dbg.value(metadata !{i32* %vsum_1_V}, i64 0, metadata !1405), !dbg !1409 ; [debug line = 387:19@57:2] [debug variable = op.V]
  %vsum_1_V_read = call i32 @_ssdm_op_Read.axis.volatile.i32P(i32* %vsum_1_V) ; [#uses=1 type=i32]
  %vsum_i_1_V_2 = trunc i32 %vsum_1_V_read to i26 ; [#uses=5 type=i26]
  call void @llvm.dbg.value(metadata !{i26 %vsum_i_1_V_2}, i64 0, metadata !1411), !dbg !1413 ; [debug line = 388:5@81:3] [debug variable = vsum_i_1.V]
  call void @llvm.dbg.value(metadata !{i26 %vsum_i_1_V_2}, i64 0, metadata !1416), !dbg !1418 ; [debug line = 388:5@57:2] [debug variable = vsum_test_1.V]
  call void @llvm.dbg.value(metadata !{i32* %vlr_1_V}, i64 0, metadata !1405), !dbg !1419 ; [debug line = 387:19@58:2] [debug variable = op.V]
  %vlr_1_V_read = call i32 @_ssdm_op_Read.axis.volatile.i32P(i32* %vlr_1_V) ; [#uses=1 type=i32]
  %vlr_test_1_V = trunc i32 %vlr_1_V_read to i26  ; [#uses=2 type=i26]
  call void @llvm.dbg.value(metadata !{i26 %vlr_test_1_V}, i64 0, metadata !1421), !dbg !1423 ; [debug line = 388:5@58:2] [debug variable = vlr_test_1.V]
  call void @llvm.dbg.value(metadata !{i32* %vbt_1_V}, i64 0, metadata !1405), !dbg !1424 ; [debug line = 387:19@59:2] [debug variable = op.V]
  %vbt_1_V_read = call i32 @_ssdm_op_Read.axis.volatile.i32P(i32* %vbt_1_V) ; [#uses=1 type=i32]
  %vbt_test_1_V = trunc i32 %vbt_1_V_read to i26  ; [#uses=2 type=i26]
  call void @llvm.dbg.value(metadata !{i26 %vbt_test_1_V}, i64 0, metadata !1426), !dbg !1428 ; [debug line = 388:5@59:2] [debug variable = vbt_test_1.V]
  call void @llvm.dbg.value(metadata !{i32* %vsum_2_V}, i64 0, metadata !1405), !dbg !1429 ; [debug line = 387:19@62:2] [debug variable = op.V]
  %vsum_2_V_read = call i32 @_ssdm_op_Read.axis.volatile.i32P(i32* %vsum_2_V) ; [#uses=1 type=i32]
  %vsum_i_2_V_2 = trunc i32 %vsum_2_V_read to i26 ; [#uses=5 type=i26]
  call void @llvm.dbg.value(metadata !{i26 %vsum_i_2_V_2}, i64 0, metadata !1431), !dbg !1433 ; [debug line = 388:5@100:3] [debug variable = vsum_i_2.V]
  call void @llvm.dbg.value(metadata !{i26 %vsum_i_2_V_2}, i64 0, metadata !1435), !dbg !1437 ; [debug line = 388:5@62:2] [debug variable = vsum_test_2.V]
  call void @llvm.dbg.value(metadata !{i32* %vlr_2_V}, i64 0, metadata !1405), !dbg !1438 ; [debug line = 387:19@63:2] [debug variable = op.V]
  %vlr_2_V_read = call i32 @_ssdm_op_Read.axis.volatile.i32P(i32* %vlr_2_V) ; [#uses=1 type=i32]
  %vlr_test_2_V = trunc i32 %vlr_2_V_read to i26  ; [#uses=2 type=i26]
  call void @llvm.dbg.value(metadata !{i26 %vlr_test_2_V}, i64 0, metadata !1440), !dbg !1442 ; [debug line = 388:5@63:2] [debug variable = vlr_test_2.V]
  call void @llvm.dbg.value(metadata !{i32* %vbt_2_V}, i64 0, metadata !1405), !dbg !1443 ; [debug line = 387:19@64:2] [debug variable = op.V]
  %vbt_2_V_read = call i32 @_ssdm_op_Read.axis.volatile.i32P(i32* %vbt_2_V) ; [#uses=1 type=i32]
  %vbt_test_2_V = trunc i32 %vbt_2_V_read to i26  ; [#uses=2 type=i26]
  call void @llvm.dbg.value(metadata !{i26 %vbt_test_2_V}, i64 0, metadata !1445), !dbg !1447 ; [debug line = 388:5@64:2] [debug variable = vbt_test_2.V]
  call void @llvm.dbg.value(metadata !{i32* %vsum_3_V}, i64 0, metadata !1405), !dbg !1448 ; [debug line = 387:19@67:2] [debug variable = op.V]
  %vsum_3_V_read = call i32 @_ssdm_op_Read.axis.volatile.i32P(i32* %vsum_3_V) ; [#uses=1 type=i32]
  %vsum_i_3_V_2 = trunc i32 %vsum_3_V_read to i26 ; [#uses=5 type=i26]
  call void @llvm.dbg.value(metadata !{i26 %vsum_i_3_V_2}, i64 0, metadata !1450), !dbg !1452 ; [debug line = 388:5@119:3] [debug variable = vsum_i_3.V]
  call void @llvm.dbg.value(metadata !{i26 %vsum_i_3_V_2}, i64 0, metadata !1454), !dbg !1456 ; [debug line = 388:5@67:2] [debug variable = vsum_test_3.V]
  call void @llvm.dbg.value(metadata !{i32* %vlr_3_V}, i64 0, metadata !1405), !dbg !1457 ; [debug line = 387:19@68:2] [debug variable = op.V]
  %vlr_3_V_read = call i32 @_ssdm_op_Read.axis.volatile.i32P(i32* %vlr_3_V) ; [#uses=1 type=i32]
  %vlr_test_3_V = trunc i32 %vlr_3_V_read to i26  ; [#uses=2 type=i26]
  call void @llvm.dbg.value(metadata !{i26 %vlr_test_3_V}, i64 0, metadata !1459), !dbg !1461 ; [debug line = 388:5@68:2] [debug variable = vlr_test_3.V]
  call void @llvm.dbg.value(metadata !{i32* %vbt_3_V}, i64 0, metadata !1405), !dbg !1462 ; [debug line = 387:19@69:2] [debug variable = op.V]
  %vbt_3_V_read = call i32 @_ssdm_op_Read.axis.volatile.i32P(i32* %vbt_3_V) ; [#uses=1 type=i32]
  %vbt_test_3_V = trunc i32 %vbt_3_V_read to i26  ; [#uses=2 type=i26]
  call void @llvm.dbg.value(metadata !{i26 %vbt_test_3_V}, i64 0, metadata !1464), !dbg !1466 ; [debug line = 388:5@69:2] [debug variable = vbt_test_3.V]
  call void @llvm.dbg.value(metadata !{i32* %vsum_4_V}, i64 0, metadata !1405), !dbg !1467 ; [debug line = 387:19@72:2] [debug variable = op.V]
  %vsum_4_V_read = call i32 @_ssdm_op_Read.axis.volatile.i32P(i32* %vsum_4_V) ; [#uses=1 type=i32]
  %vsum_i_4_V_2 = trunc i32 %vsum_4_V_read to i26 ; [#uses=5 type=i26]
  call void @llvm.dbg.value(metadata !{i26 %vsum_i_4_V_2}, i64 0, metadata !1469), !dbg !1471 ; [debug line = 388:5@138:3] [debug variable = vsum_i_4.V]
  call void @llvm.dbg.value(metadata !{i26 %vsum_i_4_V_2}, i64 0, metadata !1473), !dbg !1475 ; [debug line = 388:5@72:2] [debug variable = vsum_test_4.V]
  call void @llvm.dbg.value(metadata !{i32* %vlr_4_V}, i64 0, metadata !1405), !dbg !1476 ; [debug line = 387:19@73:2] [debug variable = op.V]
  %vlr_4_V_read = call i32 @_ssdm_op_Read.axis.volatile.i32P(i32* %vlr_4_V) ; [#uses=1 type=i32]
  %vlr_test_4_V = trunc i32 %vlr_4_V_read to i26  ; [#uses=2 type=i26]
  call void @llvm.dbg.value(metadata !{i26 %vlr_test_4_V}, i64 0, metadata !1478), !dbg !1480 ; [debug line = 388:5@73:2] [debug variable = vlr_test_4.V]
  call void @llvm.dbg.value(metadata !{i32* %vbt_4_V}, i64 0, metadata !1405), !dbg !1481 ; [debug line = 387:19@74:2] [debug variable = op.V]
  %vbt_4_V_read = call i32 @_ssdm_op_Read.axis.volatile.i32P(i32* %vbt_4_V) ; [#uses=1 type=i32]
  %vbt_test_4_V = trunc i32 %vbt_4_V_read to i26  ; [#uses=2 type=i26]
  call void @llvm.dbg.value(metadata !{i26 %vbt_test_4_V}, i64 0, metadata !1483), !dbg !1485 ; [debug line = 388:5@74:2] [debug variable = vbt_test_4.V]
  %tmp = icmp sgt i26 %vsum_i_1_V_2, 0, !dbg !1486 ; [#uses=1 type=i1] [debug line = 1955:0@2350:0@80:5]
  %vsum_i_1_V = sub i26 0, %vsum_i_1_V_2, !dbg !2310 ; [#uses=1 type=i26] [debug line = 679:13@338:43@338:44@83:14]
  call void @llvm.dbg.value(metadata !{i26 %vsum_i_1_V}, i64 0, metadata !1411), !dbg !2320 ; [debug line = 388:5@83:14] [debug variable = vsum_i_1.V]
  %vsum_test_1_V_1 = select i1 %tmp, i26 %vsum_i_1_V_2, i26 %vsum_i_1_V, !dbg !2309 ; [#uses=2 type=i26] [debug line = 80:5]
  call void @llvm.dbg.value(metadata !{i26 %vsum_test_1_V_1}, i64 0, metadata !1416), !dbg !2309 ; [debug line = 80:5] [debug variable = vsum_test_1.V]
  %comp_vsum_1_V_load = load i26* @comp_vsum_1_V, align 4, !dbg !2321 ; [#uses=1 type=i26] [debug line = 1955:0@86:5]
  %tmp_4 = icmp sgt i26 %vsum_test_1_V_1, %comp_vsum_1_V_load, !dbg !2321 ; [#uses=4 type=i1] [debug line = 1955:0@86:5]
  %comp_11_V_load = load i26* @comp_11_V, align 4, !dbg !2325 ; [#uses=1 type=i26] [debug line = 388:5@155:3]
  %comp_21_V_load = load i26* @comp_21_V, align 4, !dbg !2328 ; [#uses=1 type=i26] [debug line = 388:5@156:3]
  %comp_31_V_load = load i26* @comp_31_V, align 4, !dbg !2330 ; [#uses=1 type=i26] [debug line = 388:5@157:3]
  %vsum_i_1_V_1_comp_s = select i1 %tmp_4, i26 %vsum_i_1_V_2, i26 %comp_11_V_load, !dbg !2324 ; [#uses=1 type=i26] [debug line = 86:5]
  %vlr_test_1_V_comp_s = select i1 %tmp_4, i26 %vlr_test_1_V, i26 %comp_21_V_load, !dbg !2324 ; [#uses=1 type=i26] [debug line = 86:5]
  %vbt_test_1_V_comp_s = select i1 %tmp_4, i26 %vbt_test_1_V, i26 %comp_31_V_load, !dbg !2324 ; [#uses=1 type=i26] [debug line = 86:5]
  %tmp_5 = icmp sgt i26 %vsum_i_2_V_2, 0, !dbg !2332 ; [#uses=1 type=i1] [debug line = 1955:0@2350:0@99:5]
  %vsum_i_2_V = sub i26 0, %vsum_i_2_V_2, !dbg !2335 ; [#uses=1 type=i26] [debug line = 679:13@338:43@338:44@102:14]
  call void @llvm.dbg.value(metadata !{i26 %vsum_i_2_V}, i64 0, metadata !1431), !dbg !2339 ; [debug line = 388:5@102:14] [debug variable = vsum_i_2.V]
  %vsum_i_2_V_2_Val2_s = select i1 %tmp_5, i26 %vsum_i_2_V_2, i26 %vsum_i_2_V, !dbg !2334 ; [#uses=2 type=i26] [debug line = 99:5]
  %comp_vsum_2_V_load = load i26* @comp_vsum_2_V, align 4, !dbg !2340 ; [#uses=1 type=i26] [debug line = 1955:0@105:5]
  %tmp_9 = icmp sgt i26 %vsum_i_2_V_2_Val2_s, %comp_vsum_2_V_load, !dbg !2340 ; [#uses=4 type=i1] [debug line = 1955:0@105:5]
  %comp_12_V_load = load i26* @comp_12_V, align 4, !dbg !2342 ; [#uses=1 type=i26] [debug line = 388:5@158:3]
  %comp_22_V_load = load i26* @comp_22_V, align 4, !dbg !2344 ; [#uses=1 type=i26] [debug line = 388:5@159:3]
  %comp_32_V_load = load i26* @comp_32_V, align 4, !dbg !2346 ; [#uses=1 type=i26] [debug line = 388:5@160:3]
  %vsum_i_2_V_1_comp_s = select i1 %tmp_9, i26 %vsum_i_2_V_2, i26 %comp_12_V_load, !dbg !2341 ; [#uses=1 type=i26] [debug line = 105:5]
  %vlr_test_2_V_comp_s = select i1 %tmp_9, i26 %vlr_test_2_V, i26 %comp_22_V_load, !dbg !2341 ; [#uses=1 type=i26] [debug line = 105:5]
  %vbt_test_2_V_comp_s = select i1 %tmp_9, i26 %vbt_test_2_V, i26 %comp_32_V_load, !dbg !2341 ; [#uses=1 type=i26] [debug line = 105:5]
  %tmp_s = icmp sgt i26 %vsum_i_3_V_2, 0, !dbg !2348 ; [#uses=1 type=i1] [debug line = 1955:0@2350:0@118:5]
  %vsum_i_3_V = sub i26 0, %vsum_i_3_V_2, !dbg !2351 ; [#uses=1 type=i26] [debug line = 679:13@338:43@338:44@121:14]
  call void @llvm.dbg.value(metadata !{i26 %vsum_i_3_V}, i64 0, metadata !1450), !dbg !2355 ; [debug line = 388:5@121:14] [debug variable = vsum_i_3.V]
  %vsum_i_3_V_2_Val2_s = select i1 %tmp_s, i26 %vsum_i_3_V_2, i26 %vsum_i_3_V, !dbg !2350 ; [#uses=2 type=i26] [debug line = 118:5]
  %comp_vsum_3_V_load = load i26* @comp_vsum_3_V, align 4, !dbg !2356 ; [#uses=1 type=i26] [debug line = 1955:0@124:5]
  %tmp_1 = icmp sgt i26 %vsum_i_3_V_2_Val2_s, %comp_vsum_3_V_load, !dbg !2356 ; [#uses=4 type=i1] [debug line = 1955:0@124:5]
  %comp_13_V_load = load i26* @comp_13_V, align 4, !dbg !2358 ; [#uses=1 type=i26] [debug line = 388:5@161:3]
  %comp_23_V_load = load i26* @comp_23_V, align 4, !dbg !2360 ; [#uses=1 type=i26] [debug line = 388:5@162:3]
  %comp_33_V_load = load i26* @comp_33_V, align 4, !dbg !2362 ; [#uses=1 type=i26] [debug line = 388:5@163:3]
  %vsum_i_3_V_1_comp_s = select i1 %tmp_1, i26 %vsum_i_3_V_2, i26 %comp_13_V_load, !dbg !2357 ; [#uses=1 type=i26] [debug line = 124:5]
  %vlr_test_3_V_comp_s = select i1 %tmp_1, i26 %vlr_test_3_V, i26 %comp_23_V_load, !dbg !2357 ; [#uses=1 type=i26] [debug line = 124:5]
  %vbt_test_3_V_comp_s = select i1 %tmp_1, i26 %vbt_test_3_V, i26 %comp_33_V_load, !dbg !2357 ; [#uses=1 type=i26] [debug line = 124:5]
  %tmp_2 = icmp sgt i26 %vsum_i_4_V_2, 0, !dbg !2364 ; [#uses=1 type=i1] [debug line = 1955:0@2350:0@137:5]
  %vsum_i_4_V = sub i26 0, %vsum_i_4_V_2, !dbg !2367 ; [#uses=1 type=i26] [debug line = 679:13@338:43@338:44@140:14]
  call void @llvm.dbg.value(metadata !{i26 %vsum_i_4_V}, i64 0, metadata !1469), !dbg !2371 ; [debug line = 388:5@140:14] [debug variable = vsum_i_4.V]
  %vsum_i_4_V_2_Val2_s = select i1 %tmp_2, i26 %vsum_i_4_V_2, i26 %vsum_i_4_V, !dbg !2366 ; [#uses=2 type=i26] [debug line = 137:5]
  %comp_vsum_4_V_load = load i26* @comp_vsum_4_V, align 4, !dbg !2372 ; [#uses=1 type=i26] [debug line = 1955:0@143:5]
  %tmp_3 = icmp sgt i26 %vsum_i_4_V_2_Val2_s, %comp_vsum_4_V_load, !dbg !2372 ; [#uses=4 type=i1] [debug line = 1955:0@143:5]
  %comp_14_V_load = load i26* @comp_14_V, align 4, !dbg !2374 ; [#uses=1 type=i26] [debug line = 388:5@164:3]
  %comp_24_V_load = load i26* @comp_24_V, align 4, !dbg !2376 ; [#uses=1 type=i26] [debug line = 388:5@165:3]
  %comp_34_V_load = load i26* @comp_34_V, align 4, !dbg !2378 ; [#uses=1 type=i26] [debug line = 388:5@166:3]
  %vsum_i_4_V_1_comp_s = select i1 %tmp_3, i26 %vsum_i_4_V_2, i26 %comp_14_V_load, !dbg !2373 ; [#uses=1 type=i26] [debug line = 143:5]
  %vlr_test_4_V_comp_s = select i1 %tmp_3, i26 %vlr_test_4_V, i26 %comp_24_V_load, !dbg !2373 ; [#uses=1 type=i26] [debug line = 143:5]
  %vbt_test_4_V_comp_s = select i1 %tmp_3, i26 %vbt_test_4_V, i26 %comp_34_V_load, !dbg !2373 ; [#uses=1 type=i26] [debug line = 143:5]
  %contador_load = load i32* @contador, align 4, !dbg !2380 ; [#uses=1 type=i32] [debug line = 151:2]
  %tmp_6 = add nsw i32 1, %contador_load, !dbg !2380 ; [#uses=2 type=i32] [debug line = 151:2]
  %tmp_7 = icmp eq i32 %tmp_6, 25000, !dbg !2381  ; [#uses=1 type=i1] [debug line = 153:2]
  br i1 %tmp_7, label %0, label %mergeST35, !dbg !2381 ; [debug line = 153:2]

; <label>:0                                       ; preds = %codeRepl
  %peaks_V_addr = getelementptr [12 x i26]* %peaks_V, i64 0, i64 0, !dbg !2325 ; [#uses=1 type=i26*] [debug line = 388:5@155:3]
  store i26 %vsum_i_1_V_1_comp_s, i26* %peaks_V_addr, align 16, !dbg !2325 ; [debug line = 388:5@155:3]
  %peaks_V_addr_1 = getelementptr [12 x i26]* %peaks_V, i64 0, i64 1, !dbg !2328 ; [#uses=1 type=i26*] [debug line = 388:5@156:3]
  store i26 %vlr_test_1_V_comp_s, i26* %peaks_V_addr_1, align 4, !dbg !2328 ; [debug line = 388:5@156:3]
  %peaks_V_addr_2 = getelementptr [12 x i26]* %peaks_V, i64 0, i64 2, !dbg !2330 ; [#uses=1 type=i26*] [debug line = 388:5@157:3]
  store i26 %vbt_test_1_V_comp_s, i26* %peaks_V_addr_2, align 8, !dbg !2330 ; [debug line = 388:5@157:3]
  %peaks_V_addr_3 = getelementptr [12 x i26]* %peaks_V, i64 0, i64 3, !dbg !2342 ; [#uses=1 type=i26*] [debug line = 388:5@158:3]
  store i26 %vsum_i_2_V_1_comp_s, i26* %peaks_V_addr_3, align 4, !dbg !2342 ; [debug line = 388:5@158:3]
  %peaks_V_addr_4 = getelementptr [12 x i26]* %peaks_V, i64 0, i64 4, !dbg !2344 ; [#uses=1 type=i26*] [debug line = 388:5@159:3]
  store i26 %vlr_test_2_V_comp_s, i26* %peaks_V_addr_4, align 16, !dbg !2344 ; [debug line = 388:5@159:3]
  %peaks_V_addr_5 = getelementptr [12 x i26]* %peaks_V, i64 0, i64 5, !dbg !2346 ; [#uses=1 type=i26*] [debug line = 388:5@160:3]
  store i26 %vbt_test_2_V_comp_s, i26* %peaks_V_addr_5, align 4, !dbg !2346 ; [debug line = 388:5@160:3]
  %peaks_V_addr_6 = getelementptr [12 x i26]* %peaks_V, i64 0, i64 6, !dbg !2358 ; [#uses=1 type=i26*] [debug line = 388:5@161:3]
  store i26 %vsum_i_3_V_1_comp_s, i26* %peaks_V_addr_6, align 8, !dbg !2358 ; [debug line = 388:5@161:3]
  %peaks_V_addr_7 = getelementptr [12 x i26]* %peaks_V, i64 0, i64 7, !dbg !2360 ; [#uses=1 type=i26*] [debug line = 388:5@162:3]
  store i26 %vlr_test_3_V_comp_s, i26* %peaks_V_addr_7, align 4, !dbg !2360 ; [debug line = 388:5@162:3]
  %peaks_V_addr_8 = getelementptr [12 x i26]* %peaks_V, i64 0, i64 8, !dbg !2362 ; [#uses=1 type=i26*] [debug line = 388:5@163:3]
  store i26 %vbt_test_3_V_comp_s, i26* %peaks_V_addr_8, align 16, !dbg !2362 ; [debug line = 388:5@163:3]
  %peaks_V_addr_9 = getelementptr [12 x i26]* %peaks_V, i64 0, i64 9, !dbg !2374 ; [#uses=1 type=i26*] [debug line = 388:5@164:3]
  store i26 %vsum_i_4_V_1_comp_s, i26* %peaks_V_addr_9, align 4, !dbg !2374 ; [debug line = 388:5@164:3]
  %peaks_V_addr_10 = getelementptr [12 x i26]* %peaks_V, i64 0, i64 10, !dbg !2376 ; [#uses=1 type=i26*] [debug line = 388:5@165:3]
  store i26 %vlr_test_4_V_comp_s, i26* %peaks_V_addr_10, align 8, !dbg !2376 ; [debug line = 388:5@165:3]
  %peaks_V_addr_11 = getelementptr [12 x i26]* %peaks_V, i64 0, i64 11, !dbg !2378 ; [#uses=1 type=i26*] [debug line = 388:5@166:3]
  store i26 %vbt_test_4_V_comp_s, i26* %peaks_V_addr_11, align 4, !dbg !2378 ; [debug line = 388:5@166:3]
  br label %1, !dbg !2382                         ; [debug line = 186:7]

; <label>:1                                       ; preds = %2, %0
  %i = phi i4 [ 0, %0 ], [ %i_1, %2 ]             ; [#uses=3 type=i4]
  %exitcond = icmp eq i4 %i, -4, !dbg !2382       ; [#uses=1 type=i1] [debug line = 186:7]
  %empty = call i32 (...)* @_ssdm_op_SpecLoopTripCount(i64 12, i64 12, i64 12) ; [#uses=0 type=i32]
  %i_1 = add i4 %i, 1, !dbg !2384                 ; [#uses=1 type=i4] [debug line = 186:22]
  br i1 %exitcond, label %mergeST35.loopexit, label %2, !dbg !2382 ; [debug line = 186:7]

; <label>:2                                       ; preds = %1
  %tmp_8 = zext i4 %i to i64, !dbg !2385          ; [#uses=1 type=i64] [debug line = 188:4]
  %peaks_V_addr_12 = getelementptr [12 x i26]* %peaks_V, i64 0, i64 %tmp_8, !dbg !2387 ; [#uses=1 type=i26*] [debug line = 388:5@188:4]
  %peaks_V_load = load i26* %peaks_V_addr_12, align 4, !dbg !2387 ; [#uses=1 type=i26] [debug line = 388:5@188:4]
  %tmp_10 = sext i26 %peaks_V_load to i32         ; [#uses=1 type=i32]
  call void @_ssdm_op_Write.axis.i32P(i32* %out_peaks_V, i32 %tmp_10)
  call void @llvm.dbg.value(metadata !{i4 %i_1}, i64 0, metadata !2388), !dbg !2384 ; [debug line = 186:22] [debug variable = i]
  br label %1, !dbg !2384                         ; [debug line = 186:22]

.loopexit.new:                                    ; preds = %.loopexit.new12, %mergeST9
  ret void, !dbg !2389                            ; [debug line = 195:1]

mergeST9:                                         ; preds = %.loopexit.new12
  store i26 %comp_31_V_new_1, i26* @comp_31_V, align 4, !dbg !2390 ; [debug line = 388:5@91:3]
  store i26 %comp_21_V_new_1, i26* @comp_21_V, align 4, !dbg !2393 ; [debug line = 388:5@90:3]
  store i26 %comp_11_V_new_1, i26* @comp_11_V, align 4, !dbg !2395 ; [debug line = 388:5@89:3]
  store i26 %comp_vsum_1_V_new_1, i26* @comp_vsum_1_V, align 4, !dbg !2397 ; [debug line = 388:5@88:3]
  br label %.loopexit.new

.loopexit.new12:                                  ; preds = %.loopexit.new20, %mergeST17
  br i1 %comp_vsum_1_V_flag_1, label %mergeST9, label %.loopexit.new

mergeST17:                                        ; preds = %.loopexit.new20
  store i26 %comp_32_V_new_1, i26* @comp_32_V, align 4, !dbg !2399 ; [debug line = 388:5@110:3]
  store i26 %comp_22_V_new_1, i26* @comp_22_V, align 4, !dbg !2402 ; [debug line = 388:5@109:3]
  store i26 %comp_12_V_new_1, i26* @comp_12_V, align 4, !dbg !2404 ; [debug line = 388:5@108:3]
  store i26 %comp_vsum_2_V_new_1, i26* @comp_vsum_2_V, align 4, !dbg !2406 ; [debug line = 388:5@107:3]
  br label %.loopexit.new12

.loopexit.new20:                                  ; preds = %.loopexit.new28, %mergeST25
  br i1 %comp_vsum_2_V_flag_1, label %mergeST17, label %.loopexit.new12

mergeST25:                                        ; preds = %.loopexit.new28
  store i26 %comp_33_V_new_1, i26* @comp_33_V, align 4, !dbg !2408 ; [debug line = 388:5@129:3]
  store i26 %comp_23_V_new_1, i26* @comp_23_V, align 4, !dbg !2411 ; [debug line = 388:5@128:3]
  store i26 %comp_13_V_new_1, i26* @comp_13_V, align 4, !dbg !2413 ; [debug line = 388:5@127:3]
  store i26 %comp_vsum_3_V_new_1, i26* @comp_vsum_3_V, align 4, !dbg !2415 ; [debug line = 388:5@126:3]
  br label %.loopexit.new20

.loopexit.new28:                                  ; preds = %mergeST35, %mergeST33
  br i1 %comp_vsum_3_V_flag_1, label %mergeST25, label %.loopexit.new20

mergeST33:                                        ; preds = %mergeST35
  store i26 %comp_34_V_new_1, i26* @comp_34_V, align 4, !dbg !2417 ; [debug line = 388:5@148:3]
  store i26 %comp_24_V_new_1, i26* @comp_24_V, align 4, !dbg !2420 ; [debug line = 388:5@147:3]
  store i26 %comp_14_V_new_1, i26* @comp_14_V, align 4, !dbg !2422 ; [debug line = 388:5@146:3]
  store i26 %comp_vsum_4_V_new_1, i26* @comp_vsum_4_V, align 4, !dbg !2424 ; [debug line = 388:5@145:3]
  br label %.loopexit.new28

mergeST35.loopexit:                               ; preds = %1
  br label %mergeST35

mergeST35:                                        ; preds = %mergeST35.loopexit, %codeRepl
  %comp_vsum_1_V_flag_1 = phi i1 [ %tmp_4, %codeRepl ], [ true, %mergeST35.loopexit ] ; [#uses=1 type=i1]
  %comp_vsum_1_V_new_1 = phi i26 [ %vsum_test_1_V_1, %codeRepl ], [ 0, %mergeST35.loopexit ] ; [#uses=1 type=i26]
  %comp_11_V_new_1 = phi i26 [ %vsum_i_1_V_2, %codeRepl ], [ 0, %mergeST35.loopexit ] ; [#uses=1 type=i26]
  %comp_21_V_new_1 = phi i26 [ %vlr_test_1_V, %codeRepl ], [ 0, %mergeST35.loopexit ] ; [#uses=1 type=i26]
  %comp_31_V_new_1 = phi i26 [ %vbt_test_1_V, %codeRepl ], [ 0, %mergeST35.loopexit ] ; [#uses=1 type=i26]
  %comp_vsum_2_V_flag_1 = phi i1 [ %tmp_9, %codeRepl ], [ true, %mergeST35.loopexit ] ; [#uses=1 type=i1]
  %comp_vsum_2_V_new_1 = phi i26 [ %vsum_i_2_V_2_Val2_s, %codeRepl ], [ 0, %mergeST35.loopexit ] ; [#uses=1 type=i26]
  %comp_12_V_new_1 = phi i26 [ %vsum_i_2_V_2, %codeRepl ], [ 0, %mergeST35.loopexit ] ; [#uses=1 type=i26]
  %comp_22_V_new_1 = phi i26 [ %vlr_test_2_V, %codeRepl ], [ 0, %mergeST35.loopexit ] ; [#uses=1 type=i26]
  %comp_32_V_new_1 = phi i26 [ %vbt_test_2_V, %codeRepl ], [ 0, %mergeST35.loopexit ] ; [#uses=1 type=i26]
  %comp_vsum_3_V_flag_1 = phi i1 [ %tmp_1, %codeRepl ], [ true, %mergeST35.loopexit ] ; [#uses=1 type=i1]
  %comp_vsum_3_V_new_1 = phi i26 [ %vsum_i_3_V_2_Val2_s, %codeRepl ], [ 0, %mergeST35.loopexit ] ; [#uses=1 type=i26]
  %comp_13_V_new_1 = phi i26 [ %vsum_i_3_V_2, %codeRepl ], [ 0, %mergeST35.loopexit ] ; [#uses=1 type=i26]
  %comp_23_V_new_1 = phi i26 [ %vlr_test_3_V, %codeRepl ], [ 0, %mergeST35.loopexit ] ; [#uses=1 type=i26]
  %comp_33_V_new_1 = phi i26 [ %vbt_test_3_V, %codeRepl ], [ 0, %mergeST35.loopexit ] ; [#uses=1 type=i26]
  %comp_vsum_4_V_flag_1 = phi i1 [ %tmp_3, %codeRepl ], [ true, %mergeST35.loopexit ] ; [#uses=1 type=i1]
  %comp_vsum_4_V_new_1 = phi i26 [ %vsum_i_4_V_2_Val2_s, %codeRepl ], [ 0, %mergeST35.loopexit ] ; [#uses=1 type=i26]
  %comp_14_V_new_1 = phi i26 [ %vsum_i_4_V_2, %codeRepl ], [ 0, %mergeST35.loopexit ] ; [#uses=1 type=i26]
  %comp_24_V_new_1 = phi i26 [ %vlr_test_4_V, %codeRepl ], [ 0, %mergeST35.loopexit ] ; [#uses=1 type=i26]
  %comp_34_V_new_1 = phi i26 [ %vbt_test_4_V, %codeRepl ], [ 0, %mergeST35.loopexit ] ; [#uses=1 type=i26]
  %contador_new = phi i32 [ %tmp_6, %codeRepl ], [ 0, %mergeST35.loopexit ] ; [#uses=1 type=i32]
  store i32 %contador_new, i32* @contador, align 4, !dbg !2380 ; [debug line = 151:2]
  br i1 %comp_vsum_4_V_flag_1, label %mergeST33, label %.loopexit.new28
}

; [#uses=47]
declare void @llvm.dbg.value(metadata, i64, metadata) nounwind readnone

; [#uses=1]
declare void @llvm.dbg.declare(metadata, metadata) nounwind readnone

; [#uses=1]
define weak void @_ssdm_op_Write.axis.i32P(i32*, i32) {
entry:
  store i32 %1, i32* %0
  ret void
}

; [#uses=1]
define weak void @_ssdm_op_SpecTopModule(...) {
entry:
  ret void
}

; [#uses=1]
define weak i32 @_ssdm_op_SpecLoopTripCount(...) {
entry:
  ret i32 0
}

; [#uses=14]
define weak void @_ssdm_op_SpecInterface(...) nounwind {
entry:
  ret void
}

; [#uses=13]
define weak void @_ssdm_op_SpecBitsMap(...) {
entry:
  ret void
}

; [#uses=12]
define weak i32 @_ssdm_op_Read.axis.volatile.i32P(i32*) {
entry:
  %empty = load i32* %0                           ; [#uses=1 type=i32]
  ret i32 %empty
}

; [#uses=0]
declare i26 @_ssdm_op_PartSelect.i26.i32.i32.i32(i32, i32, i32) nounwind readnone

; [#uses=1]
declare void @_GLOBAL__I_a() nounwind

!opencl.kernels = !{!0, !7, !13, !13, !13, !16, !22, !28, !28, !16, !31, !16, !16, !16, !16, !16, !22, !31, !33, !35, !35, !37, !39, !39, !40, !16, !16, !16, !16, !16}
!hls.encrypted.func = !{}
!llvm.map.gv = !{!41}

!0 = metadata !{null, metadata !1, metadata !2, metadata !3, metadata !4, metadata !5, metadata !6}
!1 = metadata !{metadata !"kernel_arg_addr_space", i32 1, i32 1, i32 1, i32 1, i32 1, i32 1, i32 1, i32 1, i32 1, i32 1, i32 1, i32 1, i32 1}
!2 = metadata !{metadata !"kernel_arg_access_qual", metadata !"none", metadata !"none", metadata !"none", metadata !"none", metadata !"none", metadata !"none", metadata !"none", metadata !"none", metadata !"none", metadata !"none", metadata !"none", metadata !"none", metadata !"none"}
!3 = metadata !{metadata !"kernel_arg_type", metadata !"in_signal*", metadata !"in_signal*", metadata !"in_signal*", metadata !"out_signal*", metadata !"in_signal*", metadata !"in_signal*", metadata !"in_signal*", metadata !"in_signal*", metadata !"in_signal*", metadata !"in_signal*", metadata !"in_signal*", metadata !"in_signal*", metadata !"in_signal*"}
!4 = metadata !{metadata !"kernel_arg_type_qual", metadata !"", metadata !"", metadata !"", metadata !"", metadata !"", metadata !"", metadata !"", metadata !"", metadata !"", metadata !"", metadata !"", metadata !"", metadata !""}
!5 = metadata !{metadata !"kernel_arg_name", metadata !"vsum_1", metadata !"vlr_1", metadata !"vbt_1", metadata !"out_peaks", metadata !"vsum_2", metadata !"vlr_2", metadata !"vbt_2", metadata !"vsum_3", metadata !"vlr_3", metadata !"vbt_3", metadata !"vsum_4", metadata !"vlr_4", metadata !"vbt_4"}
!6 = metadata !{metadata !"reqd_work_group_size", i32 1, i32 1, i32 1}
!7 = metadata !{null, metadata !8, metadata !9, metadata !10, metadata !11, metadata !12, metadata !6}
!8 = metadata !{metadata !"kernel_arg_addr_space", i32 0}
!9 = metadata !{metadata !"kernel_arg_access_qual", metadata !"none"}
!10 = metadata !{metadata !"kernel_arg_type", metadata !"const ap_fixed_base<26, 26, true, (enum ap_q_mode)2, (enum ap_o_mode)3, 0> &"}
!11 = metadata !{metadata !"kernel_arg_type_qual", metadata !""}
!12 = metadata !{metadata !"kernel_arg_name", metadata !"op2"}
!13 = metadata !{null, metadata !8, metadata !9, metadata !14, metadata !11, metadata !15, metadata !6}
!14 = metadata !{metadata !"kernel_arg_type", metadata !"const ap_fixed_base<58, 58, true, (enum ap_q_mode)5, (enum ap_o_mode)3, 0> &"}
!15 = metadata !{metadata !"kernel_arg_name", metadata !"op"}
!16 = metadata !{null, metadata !17, metadata !18, metadata !19, metadata !20, metadata !21, metadata !6}
!17 = metadata !{metadata !"kernel_arg_addr_space"}
!18 = metadata !{metadata !"kernel_arg_access_qual"}
!19 = metadata !{metadata !"kernel_arg_type"}
!20 = metadata !{metadata !"kernel_arg_type_qual"}
!21 = metadata !{metadata !"kernel_arg_name"}
!22 = metadata !{null, metadata !23, metadata !24, metadata !25, metadata !26, metadata !27, metadata !6}
!23 = metadata !{metadata !"kernel_arg_addr_space", i32 0, i32 0}
!24 = metadata !{metadata !"kernel_arg_access_qual", metadata !"none", metadata !"none"}
!25 = metadata !{metadata !"kernel_arg_type", metadata !"const ap_fixed_base<26, 26, true, (enum ap_q_mode)2, (enum ap_o_mode)3, 0> &", metadata !"int"}
!26 = metadata !{metadata !"kernel_arg_type_qual", metadata !"", metadata !""}
!27 = metadata !{metadata !"kernel_arg_name", metadata !"op", metadata !"i_op"}
!28 = metadata !{null, metadata !8, metadata !9, metadata !29, metadata !11, metadata !30, metadata !6}
!29 = metadata !{metadata !"kernel_arg_type", metadata !"int"}
!30 = metadata !{metadata !"kernel_arg_name", metadata !"i_op"}
!31 = metadata !{null, metadata !8, metadata !9, metadata !32, metadata !11, metadata !12, metadata !6}
!32 = metadata !{metadata !"kernel_arg_type", metadata !"const ap_fixed_base<32, 32, true, (enum ap_q_mode)5, (enum ap_o_mode)3, 0> &"}
!33 = metadata !{null, metadata !8, metadata !9, metadata !34, metadata !11, metadata !15, metadata !6}
!34 = metadata !{metadata !"kernel_arg_type", metadata !"const ap_fixed<26, 26, (enum ap_q_mode)2, (enum ap_o_mode)3, 0> &"}
!35 = metadata !{null, metadata !8, metadata !9, metadata !29, metadata !11, metadata !36, metadata !6}
!36 = metadata !{metadata !"kernel_arg_name", metadata !"v"}
!37 = metadata !{null, metadata !8, metadata !9, metadata !29, metadata !11, metadata !38, metadata !6}
!38 = metadata !{metadata !"kernel_arg_name", metadata !"b"}
!39 = metadata !{null, metadata !8, metadata !9, metadata !32, metadata !11, metadata !15, metadata !6}
!40 = metadata !{null, metadata !8, metadata !9, metadata !10, metadata !11, metadata !15, metadata !6}
!41 = metadata !{metadata !42, [1 x i32]* @llvm_global_ctors_0}
!42 = metadata !{metadata !43}
!43 = metadata !{i32 0, i32 31, metadata !44}
!44 = metadata !{metadata !45}
!45 = metadata !{metadata !"llvm.global_ctors.0", metadata !46, metadata !"", i32 0, i32 31}
!46 = metadata !{metadata !47}
!47 = metadata !{i32 0, i32 0, i32 1}
!48 = metadata !{metadata !49}
!49 = metadata !{i32 0, i32 25, metadata !50}
!50 = metadata !{metadata !51}
!51 = metadata !{metadata !"vsum_1.V", metadata !46, metadata !"int26", i32 0, i32 25}
!52 = metadata !{metadata !53}
!53 = metadata !{i32 0, i32 25, metadata !54}
!54 = metadata !{metadata !55}
!55 = metadata !{metadata !"vlr_1.V", metadata !46, metadata !"int26", i32 0, i32 25}
!56 = metadata !{metadata !57}
!57 = metadata !{i32 0, i32 25, metadata !58}
!58 = metadata !{metadata !59}
!59 = metadata !{metadata !"vbt_1.V", metadata !46, metadata !"int26", i32 0, i32 25}
!60 = metadata !{metadata !61}
!61 = metadata !{i32 0, i32 25, metadata !62}
!62 = metadata !{metadata !63}
!63 = metadata !{metadata !"out_peaks.V", metadata !64, metadata !"int26", i32 0, i32 25}
!64 = metadata !{metadata !65}
!65 = metadata !{i32 0, i32 8, i32 1}
!66 = metadata !{metadata !67}
!67 = metadata !{i32 0, i32 25, metadata !68}
!68 = metadata !{metadata !69}
!69 = metadata !{metadata !"vsum_2.V", metadata !46, metadata !"int26", i32 0, i32 25}
!70 = metadata !{metadata !71}
!71 = metadata !{i32 0, i32 25, metadata !72}
!72 = metadata !{metadata !73}
!73 = metadata !{metadata !"vlr_2.V", metadata !46, metadata !"int26", i32 0, i32 25}
!74 = metadata !{metadata !75}
!75 = metadata !{i32 0, i32 25, metadata !76}
!76 = metadata !{metadata !77}
!77 = metadata !{metadata !"vbt_2.V", metadata !46, metadata !"int26", i32 0, i32 25}
!78 = metadata !{metadata !79}
!79 = metadata !{i32 0, i32 25, metadata !80}
!80 = metadata !{metadata !81}
!81 = metadata !{metadata !"vsum_3.V", metadata !46, metadata !"int26", i32 0, i32 25}
!82 = metadata !{metadata !83}
!83 = metadata !{i32 0, i32 25, metadata !84}
!84 = metadata !{metadata !85}
!85 = metadata !{metadata !"vlr_3.V", metadata !46, metadata !"int26", i32 0, i32 25}
!86 = metadata !{metadata !87}
!87 = metadata !{i32 0, i32 25, metadata !88}
!88 = metadata !{metadata !89}
!89 = metadata !{metadata !"vbt_3.V", metadata !46, metadata !"int26", i32 0, i32 25}
!90 = metadata !{metadata !91}
!91 = metadata !{i32 0, i32 25, metadata !92}
!92 = metadata !{metadata !93}
!93 = metadata !{metadata !"vsum_4.V", metadata !46, metadata !"int26", i32 0, i32 25}
!94 = metadata !{metadata !95}
!95 = metadata !{i32 0, i32 25, metadata !96}
!96 = metadata !{metadata !97}
!97 = metadata !{metadata !"vlr_4.V", metadata !46, metadata !"int26", i32 0, i32 25}
!98 = metadata !{metadata !99}
!99 = metadata !{i32 0, i32 25, metadata !100}
!100 = metadata !{metadata !101}
!101 = metadata !{metadata !"vbt_4.V", metadata !46, metadata !"int26", i32 0, i32 25}
!102 = metadata !{i32 790531, metadata !103, metadata !"vsum_1.V", null, i32 3, metadata !1339, i32 0, i32 0} ; [ DW_TAG_arg_variable_field ]
!103 = metadata !{i32 786689, metadata !104, metadata !"vsum_1", metadata !105, i32 16777219, metadata !108, i32 0, i32 0} ; [ DW_TAG_arg_variable ]
!104 = metadata !{i32 786478, i32 0, metadata !105, metadata !"max_det", metadata !"max_det", metadata !"_Z7max_detP8ap_fixedILi26ELi26EL9ap_q_mode2EL9ap_o_mode3ELi0EES3_S3_S3_S3_S3_S3_S3_S3_S3_S3_S3_S3_", metadata !105, i32 3, metadata !106, i1 false, i1 true, i32 0, i32 0, null, i32 256, i1 false, null, null, null, metadata !127, i32 4} ; [ DW_TAG_subprogram ]
!105 = metadata !{i32 786473, metadata !"Max_Det/max_det.cpp", metadata !"C:\5CUsers\5CUser\5CDocuments\5Csistema_de_posicionamiento_REVISAR\5CNueva_carpeta2\5CEarly_Adopter-Pos_System\5CMiguel_source\5CHLS\5CDet_Max_v3", null} ; [ DW_TAG_file_type ]
!106 = metadata !{i32 786453, i32 0, metadata !"", i32 0, i32 0, i64 0, i64 0, i64 0, i32 0, null, metadata !107, i32 0, i32 0} ; [ DW_TAG_subroutine_type ]
!107 = metadata !{null, metadata !108, metadata !108, metadata !108, metadata !1337, metadata !108, metadata !108, metadata !108, metadata !108, metadata !108, metadata !108, metadata !108, metadata !108, metadata !108}
!108 = metadata !{i32 786447, null, metadata !"", null, i32 0, i64 64, i64 64, i64 0, i32 0, metadata !109} ; [ DW_TAG_pointer_type ]
!109 = metadata !{i32 786454, null, metadata !"in_signal", metadata !105, i32 8, i64 0, i64 0, i64 0, i32 0, metadata !110} ; [ DW_TAG_typedef ]
!110 = metadata !{i32 786434, null, metadata !"ap_fixed<26, 26, 2, 3, 0>", metadata !111, i32 292, i64 32, i64 32, i32 0, i32 0, null, metadata !112, i32 0, null, metadata !1336} ; [ DW_TAG_class_type ]
!111 = metadata !{i32 786473, metadata !"C:/Xilinx/Vivado/2017.4/common/technology/autopilot/ap_int.h", metadata !"C:\5CUsers\5CUser\5CDocuments\5Csistema_de_posicionamiento_REVISAR\5CNueva_carpeta2\5CEarly_Adopter-Pos_System\5CMiguel_source\5CHLS\5CDet_Max_v3", null} ; [ DW_TAG_file_type ]
!112 = metadata !{metadata !113, metadata !727, metadata !731, metadata !737, metadata !743, metadata !1269, metadata !1272, metadata !1275, metadata !1278, metadata !1281, metadata !1284, metadata !1287, metadata !1290, metadata !1293, metadata !1296, metadata !1299, metadata !1302, metadata !1305, metadata !1308, metadata !1311, metadata !1314, metadata !1317, metadata !1320, metadata !1324, metadata !1327, metadata !1331, metadata !1334, metadata !1335}
!113 = metadata !{i32 786460, metadata !110, null, metadata !111, i32 0, i64 0, i64 0, i64 0, i32 0, metadata !114} ; [ DW_TAG_inheritance ]
!114 = metadata !{i32 786434, null, metadata !"ap_fixed_base<26, 26, true, 2, 3, 0>", metadata !115, i32 512, i64 32, i64 32, i32 0, i32 0, null, metadata !116, i32 0, null, metadata !725} ; [ DW_TAG_class_type ]
!115 = metadata !{i32 786473, metadata !"C:/Xilinx/Vivado/2017.4/common/technology/autopilot/ap_fixed_syn.h", metadata !"C:\5CUsers\5CUser\5CDocuments\5Csistema_de_posicionamiento_REVISAR\5CNueva_carpeta2\5CEarly_Adopter-Pos_System\5CMiguel_source\5CHLS\5CDet_Max_v3", null} ; [ DW_TAG_file_type ]
!116 = metadata !{metadata !117, metadata !139, metadata !143, metadata !146, metadata !149, metadata !178, metadata !184, metadata !187, metadata !191, metadata !195, metadata !199, metadata !203, metadata !207, metadata !210, metadata !214, metadata !218, metadata !222, metadata !227, metadata !232, metadata !237, metadata !240, metadata !245, metadata !249, metadata !254, metadata !257, metadata !260, metadata !263, metadata !266, metadata !269, metadata !272, metadata !276, metadata !279, metadata !283, metadata !286, metadata !289, metadata !292, metadata !296, metadata !299, metadata !302, metadata !305, metadata !308, metadata !311, metadata !314, metadata !317, metadata !318, metadata !319, metadata !320, metadata !323, metadata !326, metadata !329, metadata !332, metadata !335, metadata !338, metadata !339, metadata !340, metadata !343, metadata !346, metadata !349, metadata !352, metadata !353, metadata !356, metadata !359, metadata !360, metadata !363, metadata !364, metadata !367, metadata !371, metadata !372, metadata !373, metadata !650, metadata !653, metadata !656, metadata !657, metadata !658, metadata !661, metadata !664, metadata !665, metadata !666, metadata !669, metadata !672, metadata !673, metadata !674, metadata !675, metadata !676, metadata !677, metadata !681, metadata !684, metadata !685, metadata !686, metadata !689, metadata !692, metadata !696, metadata !697, metadata !700, metadata !701, metadata !704, metadata !707, metadata !708, metadata !709, metadata !710, metadata !711, metadata !714, metadata !717, metadata !718, metadata !721, metadata !724}
!117 = metadata !{i32 786460, metadata !114, null, metadata !115, i32 0, i64 0, i64 0, i64 0, i32 0, metadata !118} ; [ DW_TAG_inheritance ]
!118 = metadata !{i32 786434, null, metadata !"ssdm_int<26 + 1024 * 0, true>", metadata !119, i32 28, i64 32, i64 32, i32 0, i32 0, null, metadata !120, i32 0, null, metadata !134} ; [ DW_TAG_class_type ]
!119 = metadata !{i32 786473, metadata !"C:/Xilinx/Vivado/2017.4/common/technology/autopilot/etc/autopilot_dt.def", metadata !"C:\5CUsers\5CUser\5CDocuments\5Csistema_de_posicionamiento_REVISAR\5CNueva_carpeta2\5CEarly_Adopter-Pos_System\5CMiguel_source\5CHLS\5CDet_Max_v3", null} ; [ DW_TAG_file_type ]
!120 = metadata !{metadata !121, metadata !123, metadata !129}
!121 = metadata !{i32 786445, metadata !118, metadata !"V", metadata !119, i32 28, i64 26, i64 32, i64 0, i32 0, metadata !122} ; [ DW_TAG_member ]
!122 = metadata !{i32 786468, null, metadata !"int26", null, i32 0, i64 26, i64 32, i64 0, i32 0, i32 5} ; [ DW_TAG_base_type ]
!123 = metadata !{i32 786478, i32 0, metadata !118, metadata !"ssdm_int", metadata !"ssdm_int", metadata !"", metadata !119, i32 28, metadata !124, i1 false, i1 false, i32 0, i32 0, null, i32 256, i1 false, null, null, i32 0, metadata !127, i32 28} ; [ DW_TAG_subprogram ]
!124 = metadata !{i32 786453, i32 0, metadata !"", i32 0, i32 0, i64 0, i64 0, i64 0, i32 0, null, metadata !125, i32 0, i32 0} ; [ DW_TAG_subroutine_type ]
!125 = metadata !{null, metadata !126}
!126 = metadata !{i32 786447, i32 0, metadata !"", i32 0, i32 0, i64 64, i64 64, i64 0, i32 64, metadata !118} ; [ DW_TAG_pointer_type ]
!127 = metadata !{metadata !128}
!128 = metadata !{i32 786468}                     ; [ DW_TAG_base_type ]
!129 = metadata !{i32 786478, i32 0, metadata !118, metadata !"ssdm_int", metadata !"ssdm_int", metadata !"", metadata !119, i32 28, metadata !130, i1 false, i1 false, i32 0, i32 0, null, i32 320, i1 false, null, null, i32 0, metadata !127, i32 28} ; [ DW_TAG_subprogram ]
!130 = metadata !{i32 786453, i32 0, metadata !"", i32 0, i32 0, i64 0, i64 0, i64 0, i32 0, null, metadata !131, i32 0, i32 0} ; [ DW_TAG_subroutine_type ]
!131 = metadata !{null, metadata !126, metadata !132}
!132 = metadata !{i32 786448, null, null, null, i32 0, i64 0, i64 0, i64 0, i32 0, metadata !133} ; [ DW_TAG_reference_type ]
!133 = metadata !{i32 786470, null, metadata !"", null, i32 0, i64 0, i64 0, i64 0, i32 0, metadata !118} ; [ DW_TAG_const_type ]
!134 = metadata !{metadata !135, metadata !137}
!135 = metadata !{i32 786480, null, metadata !"_AP_N", metadata !136, i64 26, null, i32 0, i32 0} ; [ DW_TAG_template_value_parameter ]
!136 = metadata !{i32 786468, null, metadata !"int", null, i32 0, i64 32, i64 32, i64 0, i32 0, i32 5} ; [ DW_TAG_base_type ]
!137 = metadata !{i32 786480, null, metadata !"_AP_S", metadata !138, i64 1, null, i32 0, i32 0} ; [ DW_TAG_template_value_parameter ]
!138 = metadata !{i32 786468, null, metadata !"bool", null, i32 0, i64 8, i64 8, i64 0, i32 0, i32 2} ; [ DW_TAG_base_type ]
!139 = metadata !{i32 786478, i32 0, metadata !114, metadata !"overflow_adjust", metadata !"overflow_adjust", metadata !"_ZN13ap_fixed_baseILi26ELi26ELb1EL9ap_q_mode2EL9ap_o_mode3ELi0EE15overflow_adjustEbbbb", metadata !115, i32 522, metadata !140, i1 false, i1 false, i32 0, i32 0, null, i32 256, i1 false, null, null, i32 0, metadata !127, i32 522} ; [ DW_TAG_subprogram ]
!140 = metadata !{i32 786453, i32 0, metadata !"", i32 0, i32 0, i64 0, i64 0, i64 0, i32 0, null, metadata !141, i32 0, i32 0} ; [ DW_TAG_subroutine_type ]
!141 = metadata !{null, metadata !142, metadata !138, metadata !138, metadata !138, metadata !138}
!142 = metadata !{i32 786447, i32 0, metadata !"", i32 0, i32 0, i64 64, i64 64, i64 0, i32 64, metadata !114} ; [ DW_TAG_pointer_type ]
!143 = metadata !{i32 786478, i32 0, metadata !114, metadata !"quantization_adjust", metadata !"quantization_adjust", metadata !"_ZN13ap_fixed_baseILi26ELi26ELb1EL9ap_q_mode2EL9ap_o_mode3ELi0EE19quantization_adjustEbbb", metadata !115, i32 595, metadata !144, i1 false, i1 false, i32 0, i32 0, null, i32 256, i1 false, null, null, i32 0, metadata !127, i32 595} ; [ DW_TAG_subprogram ]
!144 = metadata !{i32 786453, i32 0, metadata !"", i32 0, i32 0, i64 0, i64 0, i64 0, i32 0, null, metadata !145, i32 0, i32 0} ; [ DW_TAG_subroutine_type ]
!145 = metadata !{metadata !138, metadata !142, metadata !138, metadata !138, metadata !138}
!146 = metadata !{i32 786478, i32 0, metadata !114, metadata !"ap_fixed_base", metadata !"ap_fixed_base", metadata !"", metadata !115, i32 653, metadata !147, i1 false, i1 false, i32 0, i32 0, null, i32 256, i1 false, null, null, i32 0, metadata !127, i32 653} ; [ DW_TAG_subprogram ]
!147 = metadata !{i32 786453, i32 0, metadata !"", i32 0, i32 0, i64 0, i64 0, i64 0, i32 0, null, metadata !148, i32 0, i32 0} ; [ DW_TAG_subroutine_type ]
!148 = metadata !{null, metadata !142}
!149 = metadata !{i32 786478, i32 0, metadata !114, metadata !"ap_fixed_base<26, 26, true, 2, 3, 0>", metadata !"ap_fixed_base<26, 26, true, 2, 3, 0>", metadata !"", metadata !115, i32 663, metadata !150, i1 false, i1 false, i32 0, i32 0, null, i32 256, i1 false, null, metadata !154, i32 0, metadata !127, i32 663} ; [ DW_TAG_subprogram ]
!150 = metadata !{i32 786453, i32 0, metadata !"", i32 0, i32 0, i64 0, i64 0, i64 0, i32 0, null, metadata !151, i32 0, i32 0} ; [ DW_TAG_subroutine_type ]
!151 = metadata !{null, metadata !142, metadata !152}
!152 = metadata !{i32 786448, null, null, null, i32 0, i64 0, i64 0, i64 0, i32 0, metadata !153} ; [ DW_TAG_reference_type ]
!153 = metadata !{i32 786470, null, metadata !"", null, i32 0, i64 0, i64 0, i64 0, i32 0, metadata !114} ; [ DW_TAG_const_type ]
!154 = metadata !{metadata !155, metadata !156, metadata !157, metadata !158, metadata !169, metadata !177}
!155 = metadata !{i32 786480, null, metadata !"_AP_W2", metadata !136, i64 26, null, i32 0, i32 0} ; [ DW_TAG_template_value_parameter ]
!156 = metadata !{i32 786480, null, metadata !"_AP_I2", metadata !136, i64 26, null, i32 0, i32 0} ; [ DW_TAG_template_value_parameter ]
!157 = metadata !{i32 786480, null, metadata !"_AP_S2", metadata !138, i64 1, null, i32 0, i32 0} ; [ DW_TAG_template_value_parameter ]
!158 = metadata !{i32 786480, null, metadata !"_AP_Q2", metadata !159, i64 2, null, i32 0, i32 0} ; [ DW_TAG_template_value_parameter ]
!159 = metadata !{i32 786436, null, metadata !"ap_q_mode", metadata !160, i32 658, i64 3, i64 4, i32 0, i32 0, null, metadata !161, i32 0, i32 0} ; [ DW_TAG_enumeration_type ]
!160 = metadata !{i32 786473, metadata !"C:/Xilinx/Vivado/2017.4/common/technology/autopilot/ap_int_syn.h", metadata !"C:\5CUsers\5CUser\5CDocuments\5Csistema_de_posicionamiento_REVISAR\5CNueva_carpeta2\5CEarly_Adopter-Pos_System\5CMiguel_source\5CHLS\5CDet_Max_v3", null} ; [ DW_TAG_file_type ]
!161 = metadata !{metadata !162, metadata !163, metadata !164, metadata !165, metadata !166, metadata !167, metadata !168}
!162 = metadata !{i32 786472, metadata !"SC_RND", i64 0} ; [ DW_TAG_enumerator ]
!163 = metadata !{i32 786472, metadata !"SC_RND_ZERO", i64 1} ; [ DW_TAG_enumerator ]
!164 = metadata !{i32 786472, metadata !"SC_RND_MIN_INF", i64 2} ; [ DW_TAG_enumerator ]
!165 = metadata !{i32 786472, metadata !"SC_RND_INF", i64 3} ; [ DW_TAG_enumerator ]
!166 = metadata !{i32 786472, metadata !"SC_RND_CONV", i64 4} ; [ DW_TAG_enumerator ]
!167 = metadata !{i32 786472, metadata !"SC_TRN", i64 5} ; [ DW_TAG_enumerator ]
!168 = metadata !{i32 786472, metadata !"SC_TRN_ZERO", i64 6} ; [ DW_TAG_enumerator ]
!169 = metadata !{i32 786480, null, metadata !"_AP_O2", metadata !170, i64 3, null, i32 0, i32 0} ; [ DW_TAG_template_value_parameter ]
!170 = metadata !{i32 786436, null, metadata !"ap_o_mode", metadata !160, i32 668, i64 3, i64 4, i32 0, i32 0, null, metadata !171, i32 0, i32 0} ; [ DW_TAG_enumeration_type ]
!171 = metadata !{metadata !172, metadata !173, metadata !174, metadata !175, metadata !176}
!172 = metadata !{i32 786472, metadata !"SC_SAT", i64 0} ; [ DW_TAG_enumerator ]
!173 = metadata !{i32 786472, metadata !"SC_SAT_ZERO", i64 1} ; [ DW_TAG_enumerator ]
!174 = metadata !{i32 786472, metadata !"SC_SAT_SYM", i64 2} ; [ DW_TAG_enumerator ]
!175 = metadata !{i32 786472, metadata !"SC_WRAP", i64 3} ; [ DW_TAG_enumerator ]
!176 = metadata !{i32 786472, metadata !"SC_WRAP_SM", i64 4} ; [ DW_TAG_enumerator ]
!177 = metadata !{i32 786480, null, metadata !"_AP_N2", metadata !136, i64 0, null, i32 0, i32 0} ; [ DW_TAG_template_value_parameter ]
!178 = metadata !{i32 786478, i32 0, metadata !114, metadata !"ap_fixed_base<26, 26, true, 2, 3, 0>", metadata !"ap_fixed_base<26, 26, true, 2, 3, 0>", metadata !"", metadata !115, i32 777, metadata !179, i1 false, i1 false, i32 0, i32 0, null, i32 256, i1 false, null, metadata !154, i32 0, metadata !127, i32 777} ; [ DW_TAG_subprogram ]
!179 = metadata !{i32 786453, i32 0, metadata !"", i32 0, i32 0, i64 0, i64 0, i64 0, i32 0, null, metadata !180, i32 0, i32 0} ; [ DW_TAG_subroutine_type ]
!180 = metadata !{null, metadata !142, metadata !181}
!181 = metadata !{i32 786448, null, null, null, i32 0, i64 0, i64 0, i64 0, i32 0, metadata !182} ; [ DW_TAG_reference_type ]
!182 = metadata !{i32 786470, null, metadata !"", null, i32 0, i64 0, i64 0, i64 0, i32 0, metadata !183} ; [ DW_TAG_const_type ]
!183 = metadata !{i32 786485, null, metadata !"", null, i32 0, i64 0, i64 0, i64 0, i32 0, metadata !114} ; [ DW_TAG_volatile_type ]
!184 = metadata !{i32 786478, i32 0, metadata !114, metadata !"ap_fixed_base", metadata !"ap_fixed_base", metadata !"", metadata !115, i32 789, metadata !185, i1 false, i1 false, i32 0, i32 0, null, i32 256, i1 false, null, null, i32 0, metadata !127, i32 789} ; [ DW_TAG_subprogram ]
!185 = metadata !{i32 786453, i32 0, metadata !"", i32 0, i32 0, i64 0, i64 0, i64 0, i32 0, null, metadata !186, i32 0, i32 0} ; [ DW_TAG_subroutine_type ]
!186 = metadata !{null, metadata !142, metadata !138}
!187 = metadata !{i32 786478, i32 0, metadata !114, metadata !"ap_fixed_base", metadata !"ap_fixed_base", metadata !"", metadata !115, i32 790, metadata !188, i1 false, i1 false, i32 0, i32 0, null, i32 256, i1 false, null, null, i32 0, metadata !127, i32 790} ; [ DW_TAG_subprogram ]
!188 = metadata !{i32 786453, i32 0, metadata !"", i32 0, i32 0, i64 0, i64 0, i64 0, i32 0, null, metadata !189, i32 0, i32 0} ; [ DW_TAG_subroutine_type ]
!189 = metadata !{null, metadata !142, metadata !190}
!190 = metadata !{i32 786468, null, metadata !"char", null, i32 0, i64 8, i64 8, i64 0, i32 0, i32 6} ; [ DW_TAG_base_type ]
!191 = metadata !{i32 786478, i32 0, metadata !114, metadata !"ap_fixed_base", metadata !"ap_fixed_base", metadata !"", metadata !115, i32 791, metadata !192, i1 false, i1 false, i32 0, i32 0, null, i32 256, i1 false, null, null, i32 0, metadata !127, i32 791} ; [ DW_TAG_subprogram ]
!192 = metadata !{i32 786453, i32 0, metadata !"", i32 0, i32 0, i64 0, i64 0, i64 0, i32 0, null, metadata !193, i32 0, i32 0} ; [ DW_TAG_subroutine_type ]
!193 = metadata !{null, metadata !142, metadata !194}
!194 = metadata !{i32 786468, null, metadata !"signed char", null, i32 0, i64 8, i64 8, i64 0, i32 0, i32 6} ; [ DW_TAG_base_type ]
!195 = metadata !{i32 786478, i32 0, metadata !114, metadata !"ap_fixed_base", metadata !"ap_fixed_base", metadata !"", metadata !115, i32 792, metadata !196, i1 false, i1 false, i32 0, i32 0, null, i32 256, i1 false, null, null, i32 0, metadata !127, i32 792} ; [ DW_TAG_subprogram ]
!196 = metadata !{i32 786453, i32 0, metadata !"", i32 0, i32 0, i64 0, i64 0, i64 0, i32 0, null, metadata !197, i32 0, i32 0} ; [ DW_TAG_subroutine_type ]
!197 = metadata !{null, metadata !142, metadata !198}
!198 = metadata !{i32 786468, null, metadata !"unsigned char", null, i32 0, i64 8, i64 8, i64 0, i32 0, i32 8} ; [ DW_TAG_base_type ]
!199 = metadata !{i32 786478, i32 0, metadata !114, metadata !"ap_fixed_base", metadata !"ap_fixed_base", metadata !"", metadata !115, i32 793, metadata !200, i1 false, i1 false, i32 0, i32 0, null, i32 256, i1 false, null, null, i32 0, metadata !127, i32 793} ; [ DW_TAG_subprogram ]
!200 = metadata !{i32 786453, i32 0, metadata !"", i32 0, i32 0, i64 0, i64 0, i64 0, i32 0, null, metadata !201, i32 0, i32 0} ; [ DW_TAG_subroutine_type ]
!201 = metadata !{null, metadata !142, metadata !202}
!202 = metadata !{i32 786468, null, metadata !"short", null, i32 0, i64 16, i64 16, i64 0, i32 0, i32 5} ; [ DW_TAG_base_type ]
!203 = metadata !{i32 786478, i32 0, metadata !114, metadata !"ap_fixed_base", metadata !"ap_fixed_base", metadata !"", metadata !115, i32 794, metadata !204, i1 false, i1 false, i32 0, i32 0, null, i32 256, i1 false, null, null, i32 0, metadata !127, i32 794} ; [ DW_TAG_subprogram ]
!204 = metadata !{i32 786453, i32 0, metadata !"", i32 0, i32 0, i64 0, i64 0, i64 0, i32 0, null, metadata !205, i32 0, i32 0} ; [ DW_TAG_subroutine_type ]
!205 = metadata !{null, metadata !142, metadata !206}
!206 = metadata !{i32 786468, null, metadata !"unsigned short", null, i32 0, i64 16, i64 16, i64 0, i32 0, i32 7} ; [ DW_TAG_base_type ]
!207 = metadata !{i32 786478, i32 0, metadata !114, metadata !"ap_fixed_base", metadata !"ap_fixed_base", metadata !"", metadata !115, i32 795, metadata !208, i1 false, i1 false, i32 0, i32 0, null, i32 256, i1 false, null, null, i32 0, metadata !127, i32 795} ; [ DW_TAG_subprogram ]
!208 = metadata !{i32 786453, i32 0, metadata !"", i32 0, i32 0, i64 0, i64 0, i64 0, i32 0, null, metadata !209, i32 0, i32 0} ; [ DW_TAG_subroutine_type ]
!209 = metadata !{null, metadata !142, metadata !136}
!210 = metadata !{i32 786478, i32 0, metadata !114, metadata !"ap_fixed_base", metadata !"ap_fixed_base", metadata !"", metadata !115, i32 796, metadata !211, i1 false, i1 false, i32 0, i32 0, null, i32 256, i1 false, null, null, i32 0, metadata !127, i32 796} ; [ DW_TAG_subprogram ]
!211 = metadata !{i32 786453, i32 0, metadata !"", i32 0, i32 0, i64 0, i64 0, i64 0, i32 0, null, metadata !212, i32 0, i32 0} ; [ DW_TAG_subroutine_type ]
!212 = metadata !{null, metadata !142, metadata !213}
!213 = metadata !{i32 786468, null, metadata !"unsigned int", null, i32 0, i64 32, i64 32, i64 0, i32 0, i32 7} ; [ DW_TAG_base_type ]
!214 = metadata !{i32 786478, i32 0, metadata !114, metadata !"ap_fixed_base", metadata !"ap_fixed_base", metadata !"", metadata !115, i32 798, metadata !215, i1 false, i1 false, i32 0, i32 0, null, i32 256, i1 false, null, null, i32 0, metadata !127, i32 798} ; [ DW_TAG_subprogram ]
!215 = metadata !{i32 786453, i32 0, metadata !"", i32 0, i32 0, i64 0, i64 0, i64 0, i32 0, null, metadata !216, i32 0, i32 0} ; [ DW_TAG_subroutine_type ]
!216 = metadata !{null, metadata !142, metadata !217}
!217 = metadata !{i32 786468, null, metadata !"long int", null, i32 0, i64 32, i64 32, i64 0, i32 0, i32 5} ; [ DW_TAG_base_type ]
!218 = metadata !{i32 786478, i32 0, metadata !114, metadata !"ap_fixed_base", metadata !"ap_fixed_base", metadata !"", metadata !115, i32 799, metadata !219, i1 false, i1 false, i32 0, i32 0, null, i32 256, i1 false, null, null, i32 0, metadata !127, i32 799} ; [ DW_TAG_subprogram ]
!219 = metadata !{i32 786453, i32 0, metadata !"", i32 0, i32 0, i64 0, i64 0, i64 0, i32 0, null, metadata !220, i32 0, i32 0} ; [ DW_TAG_subroutine_type ]
!220 = metadata !{null, metadata !142, metadata !221}
!221 = metadata !{i32 786468, null, metadata !"long unsigned int", null, i32 0, i64 32, i64 32, i64 0, i32 0, i32 7} ; [ DW_TAG_base_type ]
!222 = metadata !{i32 786478, i32 0, metadata !114, metadata !"ap_fixed_base", metadata !"ap_fixed_base", metadata !"", metadata !115, i32 804, metadata !223, i1 false, i1 false, i32 0, i32 0, null, i32 256, i1 false, null, null, i32 0, metadata !127, i32 804} ; [ DW_TAG_subprogram ]
!223 = metadata !{i32 786453, i32 0, metadata !"", i32 0, i32 0, i64 0, i64 0, i64 0, i32 0, null, metadata !224, i32 0, i32 0} ; [ DW_TAG_subroutine_type ]
!224 = metadata !{null, metadata !142, metadata !225}
!225 = metadata !{i32 786454, null, metadata !"ap_slong", metadata !115, i32 112, i64 0, i64 0, i64 0, i32 0, metadata !226} ; [ DW_TAG_typedef ]
!226 = metadata !{i32 786468, null, metadata !"long long int", null, i32 0, i64 64, i64 64, i64 0, i32 0, i32 5} ; [ DW_TAG_base_type ]
!227 = metadata !{i32 786478, i32 0, metadata !114, metadata !"ap_fixed_base", metadata !"ap_fixed_base", metadata !"", metadata !115, i32 805, metadata !228, i1 false, i1 false, i32 0, i32 0, null, i32 256, i1 false, null, null, i32 0, metadata !127, i32 805} ; [ DW_TAG_subprogram ]
!228 = metadata !{i32 786453, i32 0, metadata !"", i32 0, i32 0, i64 0, i64 0, i64 0, i32 0, null, metadata !229, i32 0, i32 0} ; [ DW_TAG_subroutine_type ]
!229 = metadata !{null, metadata !142, metadata !230}
!230 = metadata !{i32 786454, null, metadata !"ap_ulong", metadata !115, i32 111, i64 0, i64 0, i64 0, i32 0, metadata !231} ; [ DW_TAG_typedef ]
!231 = metadata !{i32 786468, null, metadata !"long long unsigned int", null, i32 0, i64 64, i64 64, i64 0, i32 0, i32 7} ; [ DW_TAG_base_type ]
!232 = metadata !{i32 786478, i32 0, metadata !114, metadata !"ap_fixed_base", metadata !"ap_fixed_base", metadata !"", metadata !115, i32 806, metadata !233, i1 false, i1 false, i32 0, i32 0, null, i32 256, i1 false, null, null, i32 0, metadata !127, i32 806} ; [ DW_TAG_subprogram ]
!233 = metadata !{i32 786453, i32 0, metadata !"", i32 0, i32 0, i64 0, i64 0, i64 0, i32 0, null, metadata !234, i32 0, i32 0} ; [ DW_TAG_subroutine_type ]
!234 = metadata !{null, metadata !142, metadata !235}
!235 = metadata !{i32 786447, null, metadata !"", null, i32 0, i64 64, i64 64, i64 0, i32 0, metadata !236} ; [ DW_TAG_pointer_type ]
!236 = metadata !{i32 786470, null, metadata !"", null, i32 0, i64 0, i64 0, i64 0, i32 0, metadata !190} ; [ DW_TAG_const_type ]
!237 = metadata !{i32 786478, i32 0, metadata !114, metadata !"ap_fixed_base", metadata !"ap_fixed_base", metadata !"", metadata !115, i32 813, metadata !238, i1 false, i1 false, i32 0, i32 0, null, i32 256, i1 false, null, null, i32 0, metadata !127, i32 813} ; [ DW_TAG_subprogram ]
!238 = metadata !{i32 786453, i32 0, metadata !"", i32 0, i32 0, i64 0, i64 0, i64 0, i32 0, null, metadata !239, i32 0, i32 0} ; [ DW_TAG_subroutine_type ]
!239 = metadata !{null, metadata !142, metadata !235, metadata !194}
!240 = metadata !{i32 786478, i32 0, metadata !114, metadata !"doubleToRawBits", metadata !"doubleToRawBits", metadata !"_ZNK13ap_fixed_baseILi26ELi26ELb1EL9ap_q_mode2EL9ap_o_mode3ELi0EE15doubleToRawBitsEd", metadata !115, i32 849, metadata !241, i1 false, i1 false, i32 0, i32 0, null, i32 256, i1 false, null, null, i32 0, metadata !127, i32 849} ; [ DW_TAG_subprogram ]
!241 = metadata !{i32 786453, i32 0, metadata !"", i32 0, i32 0, i64 0, i64 0, i64 0, i32 0, null, metadata !242, i32 0, i32 0} ; [ DW_TAG_subroutine_type ]
!242 = metadata !{metadata !231, metadata !243, metadata !244}
!243 = metadata !{i32 786447, i32 0, metadata !"", i32 0, i32 0, i64 64, i64 64, i64 0, i32 64, metadata !153} ; [ DW_TAG_pointer_type ]
!244 = metadata !{i32 786468, null, metadata !"double", null, i32 0, i64 64, i64 64, i64 0, i32 0, i32 4} ; [ DW_TAG_base_type ]
!245 = metadata !{i32 786478, i32 0, metadata !114, metadata !"floatToRawBits", metadata !"floatToRawBits", metadata !"_ZNK13ap_fixed_baseILi26ELi26ELb1EL9ap_q_mode2EL9ap_o_mode3ELi0EE14floatToRawBitsEf", metadata !115, i32 857, metadata !246, i1 false, i1 false, i32 0, i32 0, null, i32 256, i1 false, null, null, i32 0, metadata !127, i32 857} ; [ DW_TAG_subprogram ]
!246 = metadata !{i32 786453, i32 0, metadata !"", i32 0, i32 0, i64 0, i64 0, i64 0, i32 0, null, metadata !247, i32 0, i32 0} ; [ DW_TAG_subroutine_type ]
!247 = metadata !{metadata !213, metadata !243, metadata !248}
!248 = metadata !{i32 786468, null, metadata !"float", null, i32 0, i64 32, i64 32, i64 0, i32 0, i32 4} ; [ DW_TAG_base_type ]
!249 = metadata !{i32 786478, i32 0, metadata !114, metadata !"halfToRawBits", metadata !"halfToRawBits", metadata !"_ZNK13ap_fixed_baseILi26ELi26ELb1EL9ap_q_mode2EL9ap_o_mode3ELi0EE13halfToRawBitsEDh", metadata !115, i32 865, metadata !250, i1 false, i1 false, i32 0, i32 0, null, i32 256, i1 false, null, null, i32 0, metadata !127, i32 865} ; [ DW_TAG_subprogram ]
!250 = metadata !{i32 786453, i32 0, metadata !"", i32 0, i32 0, i64 0, i64 0, i64 0, i32 0, null, metadata !251, i32 0, i32 0} ; [ DW_TAG_subroutine_type ]
!251 = metadata !{metadata !206, metadata !243, metadata !252}
!252 = metadata !{i32 786454, null, metadata !"half", metadata !115, i32 54, i64 0, i64 0, i64 0, i32 0, metadata !253} ; [ DW_TAG_typedef ]
!253 = metadata !{i32 786468, null, metadata !"half", null, i32 0, i64 16, i64 16, i64 0, i32 0, i32 4} ; [ DW_TAG_base_type ]
!254 = metadata !{i32 786478, i32 0, metadata !114, metadata !"rawBitsToDouble", metadata !"rawBitsToDouble", metadata !"_ZNK13ap_fixed_baseILi26ELi26ELb1EL9ap_q_mode2EL9ap_o_mode3ELi0EE15rawBitsToDoubleEy", metadata !115, i32 874, metadata !255, i1 false, i1 false, i32 0, i32 0, null, i32 256, i1 false, null, null, i32 0, metadata !127, i32 874} ; [ DW_TAG_subprogram ]
!255 = metadata !{i32 786453, i32 0, metadata !"", i32 0, i32 0, i64 0, i64 0, i64 0, i32 0, null, metadata !256, i32 0, i32 0} ; [ DW_TAG_subroutine_type ]
!256 = metadata !{metadata !244, metadata !243, metadata !231}
!257 = metadata !{i32 786478, i32 0, metadata !114, metadata !"rawBitsToFloat", metadata !"rawBitsToFloat", metadata !"_ZNK13ap_fixed_baseILi26ELi26ELb1EL9ap_q_mode2EL9ap_o_mode3ELi0EE14rawBitsToFloatEj", metadata !115, i32 883, metadata !258, i1 false, i1 false, i32 0, i32 0, null, i32 256, i1 false, null, null, i32 0, metadata !127, i32 883} ; [ DW_TAG_subprogram ]
!258 = metadata !{i32 786453, i32 0, metadata !"", i32 0, i32 0, i64 0, i64 0, i64 0, i32 0, null, metadata !259, i32 0, i32 0} ; [ DW_TAG_subroutine_type ]
!259 = metadata !{metadata !248, metadata !243, metadata !213}
!260 = metadata !{i32 786478, i32 0, metadata !114, metadata !"rawBitsToHalf", metadata !"rawBitsToHalf", metadata !"_ZNK13ap_fixed_baseILi26ELi26ELb1EL9ap_q_mode2EL9ap_o_mode3ELi0EE13rawBitsToHalfEt", metadata !115, i32 892, metadata !261, i1 false, i1 false, i32 0, i32 0, null, i32 256, i1 false, null, null, i32 0, metadata !127, i32 892} ; [ DW_TAG_subprogram ]
!261 = metadata !{i32 786453, i32 0, metadata !"", i32 0, i32 0, i64 0, i64 0, i64 0, i32 0, null, metadata !262, i32 0, i32 0} ; [ DW_TAG_subroutine_type ]
!262 = metadata !{metadata !252, metadata !243, metadata !206}
!263 = metadata !{i32 786478, i32 0, metadata !114, metadata !"ap_fixed_base", metadata !"ap_fixed_base", metadata !"", metadata !115, i32 901, metadata !264, i1 false, i1 false, i32 0, i32 0, null, i32 256, i1 false, null, null, i32 0, metadata !127, i32 901} ; [ DW_TAG_subprogram ]
!264 = metadata !{i32 786453, i32 0, metadata !"", i32 0, i32 0, i64 0, i64 0, i64 0, i32 0, null, metadata !265, i32 0, i32 0} ; [ DW_TAG_subroutine_type ]
!265 = metadata !{null, metadata !142, metadata !244}
!266 = metadata !{i32 786478, i32 0, metadata !114, metadata !"ap_fixed_base", metadata !"ap_fixed_base", metadata !"", metadata !115, i32 1014, metadata !267, i1 false, i1 false, i32 0, i32 0, null, i32 256, i1 false, null, null, i32 0, metadata !127, i32 1014} ; [ DW_TAG_subprogram ]
!267 = metadata !{i32 786453, i32 0, metadata !"", i32 0, i32 0, i64 0, i64 0, i64 0, i32 0, null, metadata !268, i32 0, i32 0} ; [ DW_TAG_subroutine_type ]
!268 = metadata !{null, metadata !142, metadata !248}
!269 = metadata !{i32 786478, i32 0, metadata !114, metadata !"ap_fixed_base", metadata !"ap_fixed_base", metadata !"", metadata !115, i32 1018, metadata !270, i1 false, i1 false, i32 0, i32 0, null, i32 256, i1 false, null, null, i32 0, metadata !127, i32 1018} ; [ DW_TAG_subprogram ]
!270 = metadata !{i32 786453, i32 0, metadata !"", i32 0, i32 0, i64 0, i64 0, i64 0, i32 0, null, metadata !271, i32 0, i32 0} ; [ DW_TAG_subroutine_type ]
!271 = metadata !{null, metadata !142, metadata !252}
!272 = metadata !{i32 786478, i32 0, metadata !114, metadata !"operator=", metadata !"operator=", metadata !"_ZN13ap_fixed_baseILi26ELi26ELb1EL9ap_q_mode2EL9ap_o_mode3ELi0EEaSERKS2_", metadata !115, i32 1022, metadata !273, i1 false, i1 false, i32 0, i32 0, null, i32 256, i1 false, null, null, i32 0, metadata !127, i32 1022} ; [ DW_TAG_subprogram ]
!273 = metadata !{i32 786453, i32 0, metadata !"", i32 0, i32 0, i64 0, i64 0, i64 0, i32 0, null, metadata !274, i32 0, i32 0} ; [ DW_TAG_subroutine_type ]
!274 = metadata !{metadata !275, metadata !142, metadata !152}
!275 = metadata !{i32 786448, null, null, null, i32 0, i64 0, i64 0, i64 0, i32 0, metadata !114} ; [ DW_TAG_reference_type ]
!276 = metadata !{i32 786478, i32 0, metadata !114, metadata !"operator=", metadata !"operator=", metadata !"_ZN13ap_fixed_baseILi26ELi26ELb1EL9ap_q_mode2EL9ap_o_mode3ELi0EEaSERVKS2_", metadata !115, i32 1029, metadata !277, i1 false, i1 false, i32 0, i32 0, null, i32 256, i1 false, null, null, i32 0, metadata !127, i32 1029} ; [ DW_TAG_subprogram ]
!277 = metadata !{i32 786453, i32 0, metadata !"", i32 0, i32 0, i64 0, i64 0, i64 0, i32 0, null, metadata !278, i32 0, i32 0} ; [ DW_TAG_subroutine_type ]
!278 = metadata !{metadata !275, metadata !142, metadata !181}
!279 = metadata !{i32 786478, i32 0, metadata !114, metadata !"operator=", metadata !"operator=", metadata !"_ZNV13ap_fixed_baseILi26ELi26ELb1EL9ap_q_mode2EL9ap_o_mode3ELi0EEaSERKS2_", metadata !115, i32 1036, metadata !280, i1 false, i1 false, i32 0, i32 0, null, i32 256, i1 false, null, null, i32 0, metadata !127, i32 1036} ; [ DW_TAG_subprogram ]
!280 = metadata !{i32 786453, i32 0, metadata !"", i32 0, i32 0, i64 0, i64 0, i64 0, i32 0, null, metadata !281, i32 0, i32 0} ; [ DW_TAG_subroutine_type ]
!281 = metadata !{null, metadata !282, metadata !152}
!282 = metadata !{i32 786447, i32 0, metadata !"", i32 0, i32 0, i64 64, i64 64, i64 0, i32 64, metadata !183} ; [ DW_TAG_pointer_type ]
!283 = metadata !{i32 786478, i32 0, metadata !114, metadata !"operator=", metadata !"operator=", metadata !"_ZNV13ap_fixed_baseILi26ELi26ELb1EL9ap_q_mode2EL9ap_o_mode3ELi0EEaSERVKS2_", metadata !115, i32 1042, metadata !284, i1 false, i1 false, i32 0, i32 0, null, i32 256, i1 false, null, null, i32 0, metadata !127, i32 1042} ; [ DW_TAG_subprogram ]
!284 = metadata !{i32 786453, i32 0, metadata !"", i32 0, i32 0, i64 0, i64 0, i64 0, i32 0, null, metadata !285, i32 0, i32 0} ; [ DW_TAG_subroutine_type ]
!285 = metadata !{null, metadata !282, metadata !181}
!286 = metadata !{i32 786478, i32 0, metadata !114, metadata !"setBits", metadata !"setBits", metadata !"_ZN13ap_fixed_baseILi26ELi26ELb1EL9ap_q_mode2EL9ap_o_mode3ELi0EE7setBitsEy", metadata !115, i32 1051, metadata !287, i1 false, i1 false, i32 0, i32 0, null, i32 256, i1 false, null, null, i32 0, metadata !127, i32 1051} ; [ DW_TAG_subprogram ]
!287 = metadata !{i32 786453, i32 0, metadata !"", i32 0, i32 0, i64 0, i64 0, i64 0, i32 0, null, metadata !288, i32 0, i32 0} ; [ DW_TAG_subroutine_type ]
!288 = metadata !{metadata !275, metadata !142, metadata !231}
!289 = metadata !{i32 786478, i32 0, metadata !114, metadata !"bitsToFixed", metadata !"bitsToFixed", metadata !"_ZN13ap_fixed_baseILi26ELi26ELb1EL9ap_q_mode2EL9ap_o_mode3ELi0EE11bitsToFixedEy", metadata !115, i32 1057, metadata !290, i1 false, i1 false, i32 0, i32 0, null, i32 256, i1 false, null, null, i32 0, metadata !127, i32 1057} ; [ DW_TAG_subprogram ]
!290 = metadata !{i32 786453, i32 0, metadata !"", i32 0, i32 0, i64 0, i64 0, i64 0, i32 0, null, metadata !291, i32 0, i32 0} ; [ DW_TAG_subroutine_type ]
!291 = metadata !{metadata !114, metadata !231}
!292 = metadata !{i32 786478, i32 0, metadata !114, metadata !"to_ap_int_base", metadata !"to_ap_int_base", metadata !"_ZNK13ap_fixed_baseILi26ELi26ELb1EL9ap_q_mode2EL9ap_o_mode3ELi0EE14to_ap_int_baseEb", metadata !115, i32 1066, metadata !293, i1 false, i1 false, i32 0, i32 0, null, i32 256, i1 false, null, null, i32 0, metadata !127, i32 1066} ; [ DW_TAG_subprogram ]
!293 = metadata !{i32 786453, i32 0, metadata !"", i32 0, i32 0, i64 0, i64 0, i64 0, i32 0, null, metadata !294, i32 0, i32 0} ; [ DW_TAG_subroutine_type ]
!294 = metadata !{metadata !295, metadata !243, metadata !138}
!295 = metadata !{i32 786434, null, metadata !"ap_int_base<26, true, true>", metadata !160, i32 651, i32 0, i32 0, i32 0, i32 4, null, null, i32 0} ; [ DW_TAG_class_type ]
!296 = metadata !{i32 786478, i32 0, metadata !114, metadata !"to_int", metadata !"to_int", metadata !"_ZNK13ap_fixed_baseILi26ELi26ELb1EL9ap_q_mode2EL9ap_o_mode3ELi0EE6to_intEv", metadata !115, i32 1101, metadata !297, i1 false, i1 false, i32 0, i32 0, null, i32 256, i1 false, null, null, i32 0, metadata !127, i32 1101} ; [ DW_TAG_subprogram ]
!297 = metadata !{i32 786453, i32 0, metadata !"", i32 0, i32 0, i64 0, i64 0, i64 0, i32 0, null, metadata !298, i32 0, i32 0} ; [ DW_TAG_subroutine_type ]
!298 = metadata !{metadata !136, metadata !243}
!299 = metadata !{i32 786478, i32 0, metadata !114, metadata !"to_uint", metadata !"to_uint", metadata !"_ZNK13ap_fixed_baseILi26ELi26ELb1EL9ap_q_mode2EL9ap_o_mode3ELi0EE7to_uintEv", metadata !115, i32 1104, metadata !300, i1 false, i1 false, i32 0, i32 0, null, i32 256, i1 false, null, null, i32 0, metadata !127, i32 1104} ; [ DW_TAG_subprogram ]
!300 = metadata !{i32 786453, i32 0, metadata !"", i32 0, i32 0, i64 0, i64 0, i64 0, i32 0, null, metadata !301, i32 0, i32 0} ; [ DW_TAG_subroutine_type ]
!301 = metadata !{metadata !213, metadata !243}
!302 = metadata !{i32 786478, i32 0, metadata !114, metadata !"to_int64", metadata !"to_int64", metadata !"_ZNK13ap_fixed_baseILi26ELi26ELb1EL9ap_q_mode2EL9ap_o_mode3ELi0EE8to_int64Ev", metadata !115, i32 1107, metadata !303, i1 false, i1 false, i32 0, i32 0, null, i32 256, i1 false, null, null, i32 0, metadata !127, i32 1107} ; [ DW_TAG_subprogram ]
!303 = metadata !{i32 786453, i32 0, metadata !"", i32 0, i32 0, i64 0, i64 0, i64 0, i32 0, null, metadata !304, i32 0, i32 0} ; [ DW_TAG_subroutine_type ]
!304 = metadata !{metadata !225, metadata !243}
!305 = metadata !{i32 786478, i32 0, metadata !114, metadata !"to_uint64", metadata !"to_uint64", metadata !"_ZNK13ap_fixed_baseILi26ELi26ELb1EL9ap_q_mode2EL9ap_o_mode3ELi0EE9to_uint64Ev", metadata !115, i32 1110, metadata !306, i1 false, i1 false, i32 0, i32 0, null, i32 256, i1 false, null, null, i32 0, metadata !127, i32 1110} ; [ DW_TAG_subprogram ]
!306 = metadata !{i32 786453, i32 0, metadata !"", i32 0, i32 0, i64 0, i64 0, i64 0, i32 0, null, metadata !307, i32 0, i32 0} ; [ DW_TAG_subroutine_type ]
!307 = metadata !{metadata !230, metadata !243}
!308 = metadata !{i32 786478, i32 0, metadata !114, metadata !"to_double", metadata !"to_double", metadata !"_ZNK13ap_fixed_baseILi26ELi26ELb1EL9ap_q_mode2EL9ap_o_mode3ELi0EE9to_doubleEv", metadata !115, i32 1113, metadata !309, i1 false, i1 false, i32 0, i32 0, null, i32 256, i1 false, null, null, i32 0, metadata !127, i32 1113} ; [ DW_TAG_subprogram ]
!309 = metadata !{i32 786453, i32 0, metadata !"", i32 0, i32 0, i64 0, i64 0, i64 0, i32 0, null, metadata !310, i32 0, i32 0} ; [ DW_TAG_subroutine_type ]
!310 = metadata !{metadata !244, metadata !243}
!311 = metadata !{i32 786478, i32 0, metadata !114, metadata !"to_float", metadata !"to_float", metadata !"_ZNK13ap_fixed_baseILi26ELi26ELb1EL9ap_q_mode2EL9ap_o_mode3ELi0EE8to_floatEv", metadata !115, i32 1166, metadata !312, i1 false, i1 false, i32 0, i32 0, null, i32 256, i1 false, null, null, i32 0, metadata !127, i32 1166} ; [ DW_TAG_subprogram ]
!312 = metadata !{i32 786453, i32 0, metadata !"", i32 0, i32 0, i64 0, i64 0, i64 0, i32 0, null, metadata !313, i32 0, i32 0} ; [ DW_TAG_subroutine_type ]
!313 = metadata !{metadata !248, metadata !243}
!314 = metadata !{i32 786478, i32 0, metadata !114, metadata !"to_half", metadata !"to_half", metadata !"_ZNK13ap_fixed_baseILi26ELi26ELb1EL9ap_q_mode2EL9ap_o_mode3ELi0EE7to_halfEv", metadata !115, i32 1204, metadata !315, i1 false, i1 false, i32 0, i32 0, null, i32 256, i1 false, null, null, i32 0, metadata !127, i32 1204} ; [ DW_TAG_subprogram ]
!315 = metadata !{i32 786453, i32 0, metadata !"", i32 0, i32 0, i64 0, i64 0, i64 0, i32 0, null, metadata !316, i32 0, i32 0} ; [ DW_TAG_subroutine_type ]
!316 = metadata !{metadata !252, metadata !243}
!317 = metadata !{i32 786478, i32 0, metadata !114, metadata !"operator double", metadata !"operator double", metadata !"_ZNK13ap_fixed_baseILi26ELi26ELb1EL9ap_q_mode2EL9ap_o_mode3ELi0EEcvdEv", metadata !115, i32 1254, metadata !309, i1 false, i1 false, i32 0, i32 0, null, i32 256, i1 false, null, null, i32 0, metadata !127, i32 1254} ; [ DW_TAG_subprogram ]
!318 = metadata !{i32 786478, i32 0, metadata !114, metadata !"operator float", metadata !"operator float", metadata !"_ZNK13ap_fixed_baseILi26ELi26ELb1EL9ap_q_mode2EL9ap_o_mode3ELi0EEcvfEv", metadata !115, i32 1258, metadata !312, i1 false, i1 false, i32 0, i32 0, null, i32 256, i1 false, null, null, i32 0, metadata !127, i32 1258} ; [ DW_TAG_subprogram ]
!319 = metadata !{i32 786478, i32 0, metadata !114, metadata !"operator half", metadata !"operator half", metadata !"_ZNK13ap_fixed_baseILi26ELi26ELb1EL9ap_q_mode2EL9ap_o_mode3ELi0EEcvDhEv", metadata !115, i32 1261, metadata !315, i1 false, i1 false, i32 0, i32 0, null, i32 256, i1 false, null, null, i32 0, metadata !127, i32 1261} ; [ DW_TAG_subprogram ]
!320 = metadata !{i32 786478, i32 0, metadata !114, metadata !"operator _Bool", metadata !"operator _Bool", metadata !"_ZNK13ap_fixed_baseILi26ELi26ELb1EL9ap_q_mode2EL9ap_o_mode3ELi0EEcvbEv", metadata !115, i32 1265, metadata !321, i1 false, i1 false, i32 0, i32 0, null, i32 256, i1 false, null, null, i32 0, metadata !127, i32 1265} ; [ DW_TAG_subprogram ]
!321 = metadata !{i32 786453, i32 0, metadata !"", i32 0, i32 0, i64 0, i64 0, i64 0, i32 0, null, metadata !322, i32 0, i32 0} ; [ DW_TAG_subroutine_type ]
!322 = metadata !{metadata !138, metadata !243}
!323 = metadata !{i32 786478, i32 0, metadata !114, metadata !"operator char", metadata !"operator char", metadata !"_ZNK13ap_fixed_baseILi26ELi26ELb1EL9ap_q_mode2EL9ap_o_mode3ELi0EEcvcEv", metadata !115, i32 1269, metadata !324, i1 false, i1 false, i32 0, i32 0, null, i32 256, i1 false, null, null, i32 0, metadata !127, i32 1269} ; [ DW_TAG_subprogram ]
!324 = metadata !{i32 786453, i32 0, metadata !"", i32 0, i32 0, i64 0, i64 0, i64 0, i32 0, null, metadata !325, i32 0, i32 0} ; [ DW_TAG_subroutine_type ]
!325 = metadata !{metadata !190, metadata !243}
!326 = metadata !{i32 786478, i32 0, metadata !114, metadata !"operator signed char", metadata !"operator signed char", metadata !"_ZNK13ap_fixed_baseILi26ELi26ELb1EL9ap_q_mode2EL9ap_o_mode3ELi0EEcvaEv", metadata !115, i32 1273, metadata !327, i1 false, i1 false, i32 0, i32 0, null, i32 256, i1 false, null, null, i32 0, metadata !127, i32 1273} ; [ DW_TAG_subprogram ]
!327 = metadata !{i32 786453, i32 0, metadata !"", i32 0, i32 0, i64 0, i64 0, i64 0, i32 0, null, metadata !328, i32 0, i32 0} ; [ DW_TAG_subroutine_type ]
!328 = metadata !{metadata !194, metadata !243}
!329 = metadata !{i32 786478, i32 0, metadata !114, metadata !"operator unsigned char", metadata !"operator unsigned char", metadata !"_ZNK13ap_fixed_baseILi26ELi26ELb1EL9ap_q_mode2EL9ap_o_mode3ELi0EEcvhEv", metadata !115, i32 1277, metadata !330, i1 false, i1 false, i32 0, i32 0, null, i32 256, i1 false, null, null, i32 0, metadata !127, i32 1277} ; [ DW_TAG_subprogram ]
!330 = metadata !{i32 786453, i32 0, metadata !"", i32 0, i32 0, i64 0, i64 0, i64 0, i32 0, null, metadata !331, i32 0, i32 0} ; [ DW_TAG_subroutine_type ]
!331 = metadata !{metadata !198, metadata !243}
!332 = metadata !{i32 786478, i32 0, metadata !114, metadata !"operator short", metadata !"operator short", metadata !"_ZNK13ap_fixed_baseILi26ELi26ELb1EL9ap_q_mode2EL9ap_o_mode3ELi0EEcvsEv", metadata !115, i32 1281, metadata !333, i1 false, i1 false, i32 0, i32 0, null, i32 256, i1 false, null, null, i32 0, metadata !127, i32 1281} ; [ DW_TAG_subprogram ]
!333 = metadata !{i32 786453, i32 0, metadata !"", i32 0, i32 0, i64 0, i64 0, i64 0, i32 0, null, metadata !334, i32 0, i32 0} ; [ DW_TAG_subroutine_type ]
!334 = metadata !{metadata !202, metadata !243}
!335 = metadata !{i32 786478, i32 0, metadata !114, metadata !"operator unsigned short", metadata !"operator unsigned short", metadata !"_ZNK13ap_fixed_baseILi26ELi26ELb1EL9ap_q_mode2EL9ap_o_mode3ELi0EEcvtEv", metadata !115, i32 1285, metadata !336, i1 false, i1 false, i32 0, i32 0, null, i32 256, i1 false, null, null, i32 0, metadata !127, i32 1285} ; [ DW_TAG_subprogram ]
!336 = metadata !{i32 786453, i32 0, metadata !"", i32 0, i32 0, i64 0, i64 0, i64 0, i32 0, null, metadata !337, i32 0, i32 0} ; [ DW_TAG_subroutine_type ]
!337 = metadata !{metadata !206, metadata !243}
!338 = metadata !{i32 786478, i32 0, metadata !114, metadata !"operator int", metadata !"operator int", metadata !"_ZNK13ap_fixed_baseILi26ELi26ELb1EL9ap_q_mode2EL9ap_o_mode3ELi0EEcviEv", metadata !115, i32 1290, metadata !297, i1 false, i1 false, i32 0, i32 0, null, i32 256, i1 false, null, null, i32 0, metadata !127, i32 1290} ; [ DW_TAG_subprogram ]
!339 = metadata !{i32 786478, i32 0, metadata !114, metadata !"operator unsigned int", metadata !"operator unsigned int", metadata !"_ZNK13ap_fixed_baseILi26ELi26ELb1EL9ap_q_mode2EL9ap_o_mode3ELi0EEcvjEv", metadata !115, i32 1294, metadata !300, i1 false, i1 false, i32 0, i32 0, null, i32 256, i1 false, null, null, i32 0, metadata !127, i32 1294} ; [ DW_TAG_subprogram ]
!340 = metadata !{i32 786478, i32 0, metadata !114, metadata !"operator long", metadata !"operator long", metadata !"_ZNK13ap_fixed_baseILi26ELi26ELb1EL9ap_q_mode2EL9ap_o_mode3ELi0EEcvlEv", metadata !115, i32 1299, metadata !341, i1 false, i1 false, i32 0, i32 0, null, i32 256, i1 false, null, null, i32 0, metadata !127, i32 1299} ; [ DW_TAG_subprogram ]
!341 = metadata !{i32 786453, i32 0, metadata !"", i32 0, i32 0, i64 0, i64 0, i64 0, i32 0, null, metadata !342, i32 0, i32 0} ; [ DW_TAG_subroutine_type ]
!342 = metadata !{metadata !217, metadata !243}
!343 = metadata !{i32 786478, i32 0, metadata !114, metadata !"operator unsigned long", metadata !"operator unsigned long", metadata !"_ZNK13ap_fixed_baseILi26ELi26ELb1EL9ap_q_mode2EL9ap_o_mode3ELi0EEcvmEv", metadata !115, i32 1303, metadata !344, i1 false, i1 false, i32 0, i32 0, null, i32 256, i1 false, null, null, i32 0, metadata !127, i32 1303} ; [ DW_TAG_subprogram ]
!344 = metadata !{i32 786453, i32 0, metadata !"", i32 0, i32 0, i64 0, i64 0, i64 0, i32 0, null, metadata !345, i32 0, i32 0} ; [ DW_TAG_subroutine_type ]
!345 = metadata !{metadata !221, metadata !243}
!346 = metadata !{i32 786478, i32 0, metadata !114, metadata !"operator unsigned long long", metadata !"operator unsigned long long", metadata !"_ZNK13ap_fixed_baseILi26ELi26ELb1EL9ap_q_mode2EL9ap_o_mode3ELi0EEcvyEv", metadata !115, i32 1316, metadata !347, i1 false, i1 false, i32 0, i32 0, null, i32 256, i1 false, null, null, i32 0, metadata !127, i32 1316} ; [ DW_TAG_subprogram ]
!347 = metadata !{i32 786453, i32 0, metadata !"", i32 0, i32 0, i64 0, i64 0, i64 0, i32 0, null, metadata !348, i32 0, i32 0} ; [ DW_TAG_subroutine_type ]
!348 = metadata !{metadata !231, metadata !243}
!349 = metadata !{i32 786478, i32 0, metadata !114, metadata !"operator long long", metadata !"operator long long", metadata !"_ZNK13ap_fixed_baseILi26ELi26ELb1EL9ap_q_mode2EL9ap_o_mode3ELi0EEcvxEv", metadata !115, i32 1320, metadata !350, i1 false, i1 false, i32 0, i32 0, null, i32 256, i1 false, null, null, i32 0, metadata !127, i32 1320} ; [ DW_TAG_subprogram ]
!350 = metadata !{i32 786453, i32 0, metadata !"", i32 0, i32 0, i64 0, i64 0, i64 0, i32 0, null, metadata !351, i32 0, i32 0} ; [ DW_TAG_subroutine_type ]
!351 = metadata !{metadata !226, metadata !243}
!352 = metadata !{i32 786478, i32 0, metadata !114, metadata !"length", metadata !"length", metadata !"_ZNK13ap_fixed_baseILi26ELi26ELb1EL9ap_q_mode2EL9ap_o_mode3ELi0EE6lengthEv", metadata !115, i32 1324, metadata !297, i1 false, i1 false, i32 0, i32 0, null, i32 256, i1 false, null, null, i32 0, metadata !127, i32 1324} ; [ DW_TAG_subprogram ]
!353 = metadata !{i32 786478, i32 0, metadata !114, metadata !"countLeadingZeros", metadata !"countLeadingZeros", metadata !"_ZN13ap_fixed_baseILi26ELi26ELb1EL9ap_q_mode2EL9ap_o_mode3ELi0EE17countLeadingZerosEv", metadata !115, i32 1328, metadata !354, i1 false, i1 false, i32 0, i32 0, null, i32 256, i1 false, null, null, i32 0, metadata !127, i32 1328} ; [ DW_TAG_subprogram ]
!354 = metadata !{i32 786453, i32 0, metadata !"", i32 0, i32 0, i64 0, i64 0, i64 0, i32 0, null, metadata !355, i32 0, i32 0} ; [ DW_TAG_subroutine_type ]
!355 = metadata !{metadata !136, metadata !142}
!356 = metadata !{i32 786478, i32 0, metadata !114, metadata !"operator++", metadata !"operator++", metadata !"_ZN13ap_fixed_baseILi26ELi26ELb1EL9ap_q_mode2EL9ap_o_mode3ELi0EEppEv", metadata !115, i32 1429, metadata !357, i1 false, i1 false, i32 0, i32 0, null, i32 256, i1 false, null, null, i32 0, metadata !127, i32 1429} ; [ DW_TAG_subprogram ]
!357 = metadata !{i32 786453, i32 0, metadata !"", i32 0, i32 0, i64 0, i64 0, i64 0, i32 0, null, metadata !358, i32 0, i32 0} ; [ DW_TAG_subroutine_type ]
!358 = metadata !{metadata !275, metadata !142}
!359 = metadata !{i32 786478, i32 0, metadata !114, metadata !"operator--", metadata !"operator--", metadata !"_ZN13ap_fixed_baseILi26ELi26ELb1EL9ap_q_mode2EL9ap_o_mode3ELi0EEmmEv", metadata !115, i32 1433, metadata !357, i1 false, i1 false, i32 0, i32 0, null, i32 256, i1 false, null, null, i32 0, metadata !127, i32 1433} ; [ DW_TAG_subprogram ]
!360 = metadata !{i32 786478, i32 0, metadata !114, metadata !"operator++", metadata !"operator++", metadata !"_ZN13ap_fixed_baseILi26ELi26ELb1EL9ap_q_mode2EL9ap_o_mode3ELi0EEppEi", metadata !115, i32 1441, metadata !361, i1 false, i1 false, i32 0, i32 0, null, i32 256, i1 false, null, null, i32 0, metadata !127, i32 1441} ; [ DW_TAG_subprogram ]
!361 = metadata !{i32 786453, i32 0, metadata !"", i32 0, i32 0, i64 0, i64 0, i64 0, i32 0, null, metadata !362, i32 0, i32 0} ; [ DW_TAG_subroutine_type ]
!362 = metadata !{metadata !153, metadata !142, metadata !136}
!363 = metadata !{i32 786478, i32 0, metadata !114, metadata !"operator--", metadata !"operator--", metadata !"_ZN13ap_fixed_baseILi26ELi26ELb1EL9ap_q_mode2EL9ap_o_mode3ELi0EEmmEi", metadata !115, i32 1447, metadata !361, i1 false, i1 false, i32 0, i32 0, null, i32 256, i1 false, null, null, i32 0, metadata !127, i32 1447} ; [ DW_TAG_subprogram ]
!364 = metadata !{i32 786478, i32 0, metadata !114, metadata !"operator+", metadata !"operator+", metadata !"_ZN13ap_fixed_baseILi26ELi26ELb1EL9ap_q_mode2EL9ap_o_mode3ELi0EEpsEv", metadata !115, i32 1455, metadata !365, i1 false, i1 false, i32 0, i32 0, null, i32 256, i1 false, null, null, i32 0, metadata !127, i32 1455} ; [ DW_TAG_subprogram ]
!365 = metadata !{i32 786453, i32 0, metadata !"", i32 0, i32 0, i64 0, i64 0, i64 0, i32 0, null, metadata !366, i32 0, i32 0} ; [ DW_TAG_subroutine_type ]
!366 = metadata !{metadata !114, metadata !142}
!367 = metadata !{i32 786478, i32 0, metadata !114, metadata !"operator-", metadata !"operator-", metadata !"_ZNK13ap_fixed_baseILi26ELi26ELb1EL9ap_q_mode2EL9ap_o_mode3ELi0EEngEv", metadata !115, i32 1459, metadata !368, i1 false, i1 false, i32 0, i32 0, null, i32 256, i1 false, null, null, i32 0, metadata !127, i32 1459} ; [ DW_TAG_subprogram ]
!368 = metadata !{i32 786453, i32 0, metadata !"", i32 0, i32 0, i64 0, i64 0, i64 0, i32 0, null, metadata !369, i32 0, i32 0} ; [ DW_TAG_subroutine_type ]
!369 = metadata !{metadata !370, metadata !243}
!370 = metadata !{i32 786434, null, metadata !"ap_fixed_base<27, 27, true, 5, 3, 0>", metadata !115, i32 512, i32 0, i32 0, i32 0, i32 4, null, null, i32 0} ; [ DW_TAG_class_type ]
!371 = metadata !{i32 786478, i32 0, metadata !114, metadata !"getNeg", metadata !"getNeg", metadata !"_ZN13ap_fixed_baseILi26ELi26ELb1EL9ap_q_mode2EL9ap_o_mode3ELi0EE6getNegEv", metadata !115, i32 1465, metadata !365, i1 false, i1 false, i32 0, i32 0, null, i32 256, i1 false, null, null, i32 0, metadata !127, i32 1465} ; [ DW_TAG_subprogram ]
!372 = metadata !{i32 786478, i32 0, metadata !114, metadata !"operator!", metadata !"operator!", metadata !"_ZNK13ap_fixed_baseILi26ELi26ELb1EL9ap_q_mode2EL9ap_o_mode3ELi0EEntEv", metadata !115, i32 1473, metadata !321, i1 false, i1 false, i32 0, i32 0, null, i32 256, i1 false, null, null, i32 0, metadata !127, i32 1473} ; [ DW_TAG_subprogram ]
!373 = metadata !{i32 786478, i32 0, metadata !114, metadata !"operator~", metadata !"operator~", metadata !"_ZNK13ap_fixed_baseILi26ELi26ELb1EL9ap_q_mode2EL9ap_o_mode3ELi0EEcoEv", metadata !115, i32 1479, metadata !374, i1 false, i1 false, i32 0, i32 0, null, i32 256, i1 false, null, null, i32 0, metadata !127, i32 1479} ; [ DW_TAG_subprogram ]
!374 = metadata !{i32 786453, i32 0, metadata !"", i32 0, i32 0, i64 0, i64 0, i64 0, i32 0, null, metadata !375, i32 0, i32 0} ; [ DW_TAG_subroutine_type ]
!375 = metadata !{metadata !376, metadata !243}
!376 = metadata !{i32 786434, null, metadata !"ap_fixed_base<26, 26, true, 5, 3, 0>", metadata !115, i32 512, i64 32, i64 32, i32 0, i32 0, null, metadata !377, i32 0, null, metadata !644} ; [ DW_TAG_class_type ]
!377 = metadata !{metadata !378, metadata !379, metadata !383, metadata !386, metadata !389, metadata !392, metadata !395, metadata !398, metadata !401, metadata !404, metadata !407, metadata !410, metadata !413, metadata !416, metadata !419, metadata !422, metadata !425, metadata !428, metadata !431, metadata !436, metadata !439, metadata !442, metadata !445, metadata !448, metadata !451, metadata !454, metadata !457, metadata !460, metadata !465, metadata !471, metadata !475, metadata !478, metadata !481, metadata !484, metadata !487, metadata !490, metadata !493, metadata !496, metadata !499, metadata !502, metadata !505, metadata !508, metadata !509, metadata !510, metadata !511, metadata !514, metadata !517, metadata !520, metadata !523, metadata !526, metadata !529, metadata !530, metadata !531, metadata !534, metadata !537, metadata !540, metadata !543, metadata !544, metadata !547, metadata !550, metadata !551, metadata !554, metadata !555, metadata !558, metadata !561, metadata !562, metadata !563, metadata !566, metadata !569, metadata !572, metadata !573, metadata !574, metadata !577, metadata !580, metadata !581, metadata !582, metadata !585, metadata !586, metadata !587, metadata !588, metadata !589, metadata !590, metadata !594, metadata !597, metadata !598, metadata !599, metadata !602, metadata !605, metadata !609, metadata !610, metadata !613, metadata !614, metadata !617, metadata !620, metadata !621, metadata !622, metadata !623, metadata !624, metadata !627, metadata !630, metadata !631, metadata !641}
!378 = metadata !{i32 786460, metadata !376, null, metadata !115, i32 0, i64 0, i64 0, i64 0, i32 0, metadata !118} ; [ DW_TAG_inheritance ]
!379 = metadata !{i32 786478, i32 0, metadata !376, metadata !"overflow_adjust", metadata !"overflow_adjust", metadata !"_ZN13ap_fixed_baseILi26ELi26ELb1EL9ap_q_mode5EL9ap_o_mode3ELi0EE15overflow_adjustEbbbb", metadata !115, i32 522, metadata !380, i1 false, i1 false, i32 0, i32 0, null, i32 256, i1 false, null, null, i32 0, metadata !127, i32 522} ; [ DW_TAG_subprogram ]
!380 = metadata !{i32 786453, i32 0, metadata !"", i32 0, i32 0, i64 0, i64 0, i64 0, i32 0, null, metadata !381, i32 0, i32 0} ; [ DW_TAG_subroutine_type ]
!381 = metadata !{null, metadata !382, metadata !138, metadata !138, metadata !138, metadata !138}
!382 = metadata !{i32 786447, i32 0, metadata !"", i32 0, i32 0, i64 64, i64 64, i64 0, i32 64, metadata !376} ; [ DW_TAG_pointer_type ]
!383 = metadata !{i32 786478, i32 0, metadata !376, metadata !"quantization_adjust", metadata !"quantization_adjust", metadata !"_ZN13ap_fixed_baseILi26ELi26ELb1EL9ap_q_mode5EL9ap_o_mode3ELi0EE19quantization_adjustEbbb", metadata !115, i32 595, metadata !384, i1 false, i1 false, i32 0, i32 0, null, i32 256, i1 false, null, null, i32 0, metadata !127, i32 595} ; [ DW_TAG_subprogram ]
!384 = metadata !{i32 786453, i32 0, metadata !"", i32 0, i32 0, i64 0, i64 0, i64 0, i32 0, null, metadata !385, i32 0, i32 0} ; [ DW_TAG_subroutine_type ]
!385 = metadata !{metadata !138, metadata !382, metadata !138, metadata !138, metadata !138}
!386 = metadata !{i32 786478, i32 0, metadata !376, metadata !"ap_fixed_base", metadata !"ap_fixed_base", metadata !"", metadata !115, i32 653, metadata !387, i1 false, i1 false, i32 0, i32 0, null, i32 256, i1 false, null, null, i32 0, metadata !127, i32 653} ; [ DW_TAG_subprogram ]
!387 = metadata !{i32 786453, i32 0, metadata !"", i32 0, i32 0, i64 0, i64 0, i64 0, i32 0, null, metadata !388, i32 0, i32 0} ; [ DW_TAG_subroutine_type ]
!388 = metadata !{null, metadata !382}
!389 = metadata !{i32 786478, i32 0, metadata !376, metadata !"ap_fixed_base", metadata !"ap_fixed_base", metadata !"", metadata !115, i32 789, metadata !390, i1 false, i1 false, i32 0, i32 0, null, i32 256, i1 false, null, null, i32 0, metadata !127, i32 789} ; [ DW_TAG_subprogram ]
!390 = metadata !{i32 786453, i32 0, metadata !"", i32 0, i32 0, i64 0, i64 0, i64 0, i32 0, null, metadata !391, i32 0, i32 0} ; [ DW_TAG_subroutine_type ]
!391 = metadata !{null, metadata !382, metadata !138}
!392 = metadata !{i32 786478, i32 0, metadata !376, metadata !"ap_fixed_base", metadata !"ap_fixed_base", metadata !"", metadata !115, i32 790, metadata !393, i1 false, i1 false, i32 0, i32 0, null, i32 256, i1 false, null, null, i32 0, metadata !127, i32 790} ; [ DW_TAG_subprogram ]
!393 = metadata !{i32 786453, i32 0, metadata !"", i32 0, i32 0, i64 0, i64 0, i64 0, i32 0, null, metadata !394, i32 0, i32 0} ; [ DW_TAG_subroutine_type ]
!394 = metadata !{null, metadata !382, metadata !190}
!395 = metadata !{i32 786478, i32 0, metadata !376, metadata !"ap_fixed_base", metadata !"ap_fixed_base", metadata !"", metadata !115, i32 791, metadata !396, i1 false, i1 false, i32 0, i32 0, null, i32 256, i1 false, null, null, i32 0, metadata !127, i32 791} ; [ DW_TAG_subprogram ]
!396 = metadata !{i32 786453, i32 0, metadata !"", i32 0, i32 0, i64 0, i64 0, i64 0, i32 0, null, metadata !397, i32 0, i32 0} ; [ DW_TAG_subroutine_type ]
!397 = metadata !{null, metadata !382, metadata !194}
!398 = metadata !{i32 786478, i32 0, metadata !376, metadata !"ap_fixed_base", metadata !"ap_fixed_base", metadata !"", metadata !115, i32 792, metadata !399, i1 false, i1 false, i32 0, i32 0, null, i32 256, i1 false, null, null, i32 0, metadata !127, i32 792} ; [ DW_TAG_subprogram ]
!399 = metadata !{i32 786453, i32 0, metadata !"", i32 0, i32 0, i64 0, i64 0, i64 0, i32 0, null, metadata !400, i32 0, i32 0} ; [ DW_TAG_subroutine_type ]
!400 = metadata !{null, metadata !382, metadata !198}
!401 = metadata !{i32 786478, i32 0, metadata !376, metadata !"ap_fixed_base", metadata !"ap_fixed_base", metadata !"", metadata !115, i32 793, metadata !402, i1 false, i1 false, i32 0, i32 0, null, i32 256, i1 false, null, null, i32 0, metadata !127, i32 793} ; [ DW_TAG_subprogram ]
!402 = metadata !{i32 786453, i32 0, metadata !"", i32 0, i32 0, i64 0, i64 0, i64 0, i32 0, null, metadata !403, i32 0, i32 0} ; [ DW_TAG_subroutine_type ]
!403 = metadata !{null, metadata !382, metadata !202}
!404 = metadata !{i32 786478, i32 0, metadata !376, metadata !"ap_fixed_base", metadata !"ap_fixed_base", metadata !"", metadata !115, i32 794, metadata !405, i1 false, i1 false, i32 0, i32 0, null, i32 256, i1 false, null, null, i32 0, metadata !127, i32 794} ; [ DW_TAG_subprogram ]
!405 = metadata !{i32 786453, i32 0, metadata !"", i32 0, i32 0, i64 0, i64 0, i64 0, i32 0, null, metadata !406, i32 0, i32 0} ; [ DW_TAG_subroutine_type ]
!406 = metadata !{null, metadata !382, metadata !206}
!407 = metadata !{i32 786478, i32 0, metadata !376, metadata !"ap_fixed_base", metadata !"ap_fixed_base", metadata !"", metadata !115, i32 795, metadata !408, i1 false, i1 false, i32 0, i32 0, null, i32 256, i1 false, null, null, i32 0, metadata !127, i32 795} ; [ DW_TAG_subprogram ]
!408 = metadata !{i32 786453, i32 0, metadata !"", i32 0, i32 0, i64 0, i64 0, i64 0, i32 0, null, metadata !409, i32 0, i32 0} ; [ DW_TAG_subroutine_type ]
!409 = metadata !{null, metadata !382, metadata !136}
!410 = metadata !{i32 786478, i32 0, metadata !376, metadata !"ap_fixed_base", metadata !"ap_fixed_base", metadata !"", metadata !115, i32 796, metadata !411, i1 false, i1 false, i32 0, i32 0, null, i32 256, i1 false, null, null, i32 0, metadata !127, i32 796} ; [ DW_TAG_subprogram ]
!411 = metadata !{i32 786453, i32 0, metadata !"", i32 0, i32 0, i64 0, i64 0, i64 0, i32 0, null, metadata !412, i32 0, i32 0} ; [ DW_TAG_subroutine_type ]
!412 = metadata !{null, metadata !382, metadata !213}
!413 = metadata !{i32 786478, i32 0, metadata !376, metadata !"ap_fixed_base", metadata !"ap_fixed_base", metadata !"", metadata !115, i32 798, metadata !414, i1 false, i1 false, i32 0, i32 0, null, i32 256, i1 false, null, null, i32 0, metadata !127, i32 798} ; [ DW_TAG_subprogram ]
!414 = metadata !{i32 786453, i32 0, metadata !"", i32 0, i32 0, i64 0, i64 0, i64 0, i32 0, null, metadata !415, i32 0, i32 0} ; [ DW_TAG_subroutine_type ]
!415 = metadata !{null, metadata !382, metadata !217}
!416 = metadata !{i32 786478, i32 0, metadata !376, metadata !"ap_fixed_base", metadata !"ap_fixed_base", metadata !"", metadata !115, i32 799, metadata !417, i1 false, i1 false, i32 0, i32 0, null, i32 256, i1 false, null, null, i32 0, metadata !127, i32 799} ; [ DW_TAG_subprogram ]
!417 = metadata !{i32 786453, i32 0, metadata !"", i32 0, i32 0, i64 0, i64 0, i64 0, i32 0, null, metadata !418, i32 0, i32 0} ; [ DW_TAG_subroutine_type ]
!418 = metadata !{null, metadata !382, metadata !221}
!419 = metadata !{i32 786478, i32 0, metadata !376, metadata !"ap_fixed_base", metadata !"ap_fixed_base", metadata !"", metadata !115, i32 804, metadata !420, i1 false, i1 false, i32 0, i32 0, null, i32 256, i1 false, null, null, i32 0, metadata !127, i32 804} ; [ DW_TAG_subprogram ]
!420 = metadata !{i32 786453, i32 0, metadata !"", i32 0, i32 0, i64 0, i64 0, i64 0, i32 0, null, metadata !421, i32 0, i32 0} ; [ DW_TAG_subroutine_type ]
!421 = metadata !{null, metadata !382, metadata !225}
!422 = metadata !{i32 786478, i32 0, metadata !376, metadata !"ap_fixed_base", metadata !"ap_fixed_base", metadata !"", metadata !115, i32 805, metadata !423, i1 false, i1 false, i32 0, i32 0, null, i32 256, i1 false, null, null, i32 0, metadata !127, i32 805} ; [ DW_TAG_subprogram ]
!423 = metadata !{i32 786453, i32 0, metadata !"", i32 0, i32 0, i64 0, i64 0, i64 0, i32 0, null, metadata !424, i32 0, i32 0} ; [ DW_TAG_subroutine_type ]
!424 = metadata !{null, metadata !382, metadata !230}
!425 = metadata !{i32 786478, i32 0, metadata !376, metadata !"ap_fixed_base", metadata !"ap_fixed_base", metadata !"", metadata !115, i32 806, metadata !426, i1 false, i1 false, i32 0, i32 0, null, i32 256, i1 false, null, null, i32 0, metadata !127, i32 806} ; [ DW_TAG_subprogram ]
!426 = metadata !{i32 786453, i32 0, metadata !"", i32 0, i32 0, i64 0, i64 0, i64 0, i32 0, null, metadata !427, i32 0, i32 0} ; [ DW_TAG_subroutine_type ]
!427 = metadata !{null, metadata !382, metadata !235}
!428 = metadata !{i32 786478, i32 0, metadata !376, metadata !"ap_fixed_base", metadata !"ap_fixed_base", metadata !"", metadata !115, i32 813, metadata !429, i1 false, i1 false, i32 0, i32 0, null, i32 256, i1 false, null, null, i32 0, metadata !127, i32 813} ; [ DW_TAG_subprogram ]
!429 = metadata !{i32 786453, i32 0, metadata !"", i32 0, i32 0, i64 0, i64 0, i64 0, i32 0, null, metadata !430, i32 0, i32 0} ; [ DW_TAG_subroutine_type ]
!430 = metadata !{null, metadata !382, metadata !235, metadata !194}
!431 = metadata !{i32 786478, i32 0, metadata !376, metadata !"doubleToRawBits", metadata !"doubleToRawBits", metadata !"_ZNK13ap_fixed_baseILi26ELi26ELb1EL9ap_q_mode5EL9ap_o_mode3ELi0EE15doubleToRawBitsEd", metadata !115, i32 849, metadata !432, i1 false, i1 false, i32 0, i32 0, null, i32 256, i1 false, null, null, i32 0, metadata !127, i32 849} ; [ DW_TAG_subprogram ]
!432 = metadata !{i32 786453, i32 0, metadata !"", i32 0, i32 0, i64 0, i64 0, i64 0, i32 0, null, metadata !433, i32 0, i32 0} ; [ DW_TAG_subroutine_type ]
!433 = metadata !{metadata !231, metadata !434, metadata !244}
!434 = metadata !{i32 786447, i32 0, metadata !"", i32 0, i32 0, i64 64, i64 64, i64 0, i32 64, metadata !435} ; [ DW_TAG_pointer_type ]
!435 = metadata !{i32 786470, null, metadata !"", null, i32 0, i64 0, i64 0, i64 0, i32 0, metadata !376} ; [ DW_TAG_const_type ]
!436 = metadata !{i32 786478, i32 0, metadata !376, metadata !"floatToRawBits", metadata !"floatToRawBits", metadata !"_ZNK13ap_fixed_baseILi26ELi26ELb1EL9ap_q_mode5EL9ap_o_mode3ELi0EE14floatToRawBitsEf", metadata !115, i32 857, metadata !437, i1 false, i1 false, i32 0, i32 0, null, i32 256, i1 false, null, null, i32 0, metadata !127, i32 857} ; [ DW_TAG_subprogram ]
!437 = metadata !{i32 786453, i32 0, metadata !"", i32 0, i32 0, i64 0, i64 0, i64 0, i32 0, null, metadata !438, i32 0, i32 0} ; [ DW_TAG_subroutine_type ]
!438 = metadata !{metadata !213, metadata !434, metadata !248}
!439 = metadata !{i32 786478, i32 0, metadata !376, metadata !"halfToRawBits", metadata !"halfToRawBits", metadata !"_ZNK13ap_fixed_baseILi26ELi26ELb1EL9ap_q_mode5EL9ap_o_mode3ELi0EE13halfToRawBitsEDh", metadata !115, i32 865, metadata !440, i1 false, i1 false, i32 0, i32 0, null, i32 256, i1 false, null, null, i32 0, metadata !127, i32 865} ; [ DW_TAG_subprogram ]
!440 = metadata !{i32 786453, i32 0, metadata !"", i32 0, i32 0, i64 0, i64 0, i64 0, i32 0, null, metadata !441, i32 0, i32 0} ; [ DW_TAG_subroutine_type ]
!441 = metadata !{metadata !206, metadata !434, metadata !252}
!442 = metadata !{i32 786478, i32 0, metadata !376, metadata !"rawBitsToDouble", metadata !"rawBitsToDouble", metadata !"_ZNK13ap_fixed_baseILi26ELi26ELb1EL9ap_q_mode5EL9ap_o_mode3ELi0EE15rawBitsToDoubleEy", metadata !115, i32 874, metadata !443, i1 false, i1 false, i32 0, i32 0, null, i32 256, i1 false, null, null, i32 0, metadata !127, i32 874} ; [ DW_TAG_subprogram ]
!443 = metadata !{i32 786453, i32 0, metadata !"", i32 0, i32 0, i64 0, i64 0, i64 0, i32 0, null, metadata !444, i32 0, i32 0} ; [ DW_TAG_subroutine_type ]
!444 = metadata !{metadata !244, metadata !434, metadata !231}
!445 = metadata !{i32 786478, i32 0, metadata !376, metadata !"rawBitsToFloat", metadata !"rawBitsToFloat", metadata !"_ZNK13ap_fixed_baseILi26ELi26ELb1EL9ap_q_mode5EL9ap_o_mode3ELi0EE14rawBitsToFloatEj", metadata !115, i32 883, metadata !446, i1 false, i1 false, i32 0, i32 0, null, i32 256, i1 false, null, null, i32 0, metadata !127, i32 883} ; [ DW_TAG_subprogram ]
!446 = metadata !{i32 786453, i32 0, metadata !"", i32 0, i32 0, i64 0, i64 0, i64 0, i32 0, null, metadata !447, i32 0, i32 0} ; [ DW_TAG_subroutine_type ]
!447 = metadata !{metadata !248, metadata !434, metadata !213}
!448 = metadata !{i32 786478, i32 0, metadata !376, metadata !"rawBitsToHalf", metadata !"rawBitsToHalf", metadata !"_ZNK13ap_fixed_baseILi26ELi26ELb1EL9ap_q_mode5EL9ap_o_mode3ELi0EE13rawBitsToHalfEt", metadata !115, i32 892, metadata !449, i1 false, i1 false, i32 0, i32 0, null, i32 256, i1 false, null, null, i32 0, metadata !127, i32 892} ; [ DW_TAG_subprogram ]
!449 = metadata !{i32 786453, i32 0, metadata !"", i32 0, i32 0, i64 0, i64 0, i64 0, i32 0, null, metadata !450, i32 0, i32 0} ; [ DW_TAG_subroutine_type ]
!450 = metadata !{metadata !252, metadata !434, metadata !206}
!451 = metadata !{i32 786478, i32 0, metadata !376, metadata !"ap_fixed_base", metadata !"ap_fixed_base", metadata !"", metadata !115, i32 901, metadata !452, i1 false, i1 false, i32 0, i32 0, null, i32 256, i1 false, null, null, i32 0, metadata !127, i32 901} ; [ DW_TAG_subprogram ]
!452 = metadata !{i32 786453, i32 0, metadata !"", i32 0, i32 0, i64 0, i64 0, i64 0, i32 0, null, metadata !453, i32 0, i32 0} ; [ DW_TAG_subroutine_type ]
!453 = metadata !{null, metadata !382, metadata !244}
!454 = metadata !{i32 786478, i32 0, metadata !376, metadata !"ap_fixed_base", metadata !"ap_fixed_base", metadata !"", metadata !115, i32 1014, metadata !455, i1 false, i1 false, i32 0, i32 0, null, i32 256, i1 false, null, null, i32 0, metadata !127, i32 1014} ; [ DW_TAG_subprogram ]
!455 = metadata !{i32 786453, i32 0, metadata !"", i32 0, i32 0, i64 0, i64 0, i64 0, i32 0, null, metadata !456, i32 0, i32 0} ; [ DW_TAG_subroutine_type ]
!456 = metadata !{null, metadata !382, metadata !248}
!457 = metadata !{i32 786478, i32 0, metadata !376, metadata !"ap_fixed_base", metadata !"ap_fixed_base", metadata !"", metadata !115, i32 1018, metadata !458, i1 false, i1 false, i32 0, i32 0, null, i32 256, i1 false, null, null, i32 0, metadata !127, i32 1018} ; [ DW_TAG_subprogram ]
!458 = metadata !{i32 786453, i32 0, metadata !"", i32 0, i32 0, i64 0, i64 0, i64 0, i32 0, null, metadata !459, i32 0, i32 0} ; [ DW_TAG_subroutine_type ]
!459 = metadata !{null, metadata !382, metadata !252}
!460 = metadata !{i32 786478, i32 0, metadata !376, metadata !"operator=", metadata !"operator=", metadata !"_ZN13ap_fixed_baseILi26ELi26ELb1EL9ap_q_mode5EL9ap_o_mode3ELi0EEaSERKS2_", metadata !115, i32 1022, metadata !461, i1 false, i1 false, i32 0, i32 0, null, i32 256, i1 false, null, null, i32 0, metadata !127, i32 1022} ; [ DW_TAG_subprogram ]
!461 = metadata !{i32 786453, i32 0, metadata !"", i32 0, i32 0, i64 0, i64 0, i64 0, i32 0, null, metadata !462, i32 0, i32 0} ; [ DW_TAG_subroutine_type ]
!462 = metadata !{metadata !463, metadata !382, metadata !464}
!463 = metadata !{i32 786448, null, null, null, i32 0, i64 0, i64 0, i64 0, i32 0, metadata !376} ; [ DW_TAG_reference_type ]
!464 = metadata !{i32 786448, null, null, null, i32 0, i64 0, i64 0, i64 0, i32 0, metadata !435} ; [ DW_TAG_reference_type ]
!465 = metadata !{i32 786478, i32 0, metadata !376, metadata !"operator=", metadata !"operator=", metadata !"_ZN13ap_fixed_baseILi26ELi26ELb1EL9ap_q_mode5EL9ap_o_mode3ELi0EEaSERVKS2_", metadata !115, i32 1029, metadata !466, i1 false, i1 false, i32 0, i32 0, null, i32 256, i1 false, null, null, i32 0, metadata !127, i32 1029} ; [ DW_TAG_subprogram ]
!466 = metadata !{i32 786453, i32 0, metadata !"", i32 0, i32 0, i64 0, i64 0, i64 0, i32 0, null, metadata !467, i32 0, i32 0} ; [ DW_TAG_subroutine_type ]
!467 = metadata !{metadata !463, metadata !382, metadata !468}
!468 = metadata !{i32 786448, null, null, null, i32 0, i64 0, i64 0, i64 0, i32 0, metadata !469} ; [ DW_TAG_reference_type ]
!469 = metadata !{i32 786470, null, metadata !"", null, i32 0, i64 0, i64 0, i64 0, i32 0, metadata !470} ; [ DW_TAG_const_type ]
!470 = metadata !{i32 786485, null, metadata !"", null, i32 0, i64 0, i64 0, i64 0, i32 0, metadata !376} ; [ DW_TAG_volatile_type ]
!471 = metadata !{i32 786478, i32 0, metadata !376, metadata !"operator=", metadata !"operator=", metadata !"_ZNV13ap_fixed_baseILi26ELi26ELb1EL9ap_q_mode5EL9ap_o_mode3ELi0EEaSERKS2_", metadata !115, i32 1036, metadata !472, i1 false, i1 false, i32 0, i32 0, null, i32 256, i1 false, null, null, i32 0, metadata !127, i32 1036} ; [ DW_TAG_subprogram ]
!472 = metadata !{i32 786453, i32 0, metadata !"", i32 0, i32 0, i64 0, i64 0, i64 0, i32 0, null, metadata !473, i32 0, i32 0} ; [ DW_TAG_subroutine_type ]
!473 = metadata !{null, metadata !474, metadata !464}
!474 = metadata !{i32 786447, i32 0, metadata !"", i32 0, i32 0, i64 64, i64 64, i64 0, i32 64, metadata !470} ; [ DW_TAG_pointer_type ]
!475 = metadata !{i32 786478, i32 0, metadata !376, metadata !"operator=", metadata !"operator=", metadata !"_ZNV13ap_fixed_baseILi26ELi26ELb1EL9ap_q_mode5EL9ap_o_mode3ELi0EEaSERVKS2_", metadata !115, i32 1042, metadata !476, i1 false, i1 false, i32 0, i32 0, null, i32 256, i1 false, null, null, i32 0, metadata !127, i32 1042} ; [ DW_TAG_subprogram ]
!476 = metadata !{i32 786453, i32 0, metadata !"", i32 0, i32 0, i64 0, i64 0, i64 0, i32 0, null, metadata !477, i32 0, i32 0} ; [ DW_TAG_subroutine_type ]
!477 = metadata !{null, metadata !474, metadata !468}
!478 = metadata !{i32 786478, i32 0, metadata !376, metadata !"setBits", metadata !"setBits", metadata !"_ZN13ap_fixed_baseILi26ELi26ELb1EL9ap_q_mode5EL9ap_o_mode3ELi0EE7setBitsEy", metadata !115, i32 1051, metadata !479, i1 false, i1 false, i32 0, i32 0, null, i32 256, i1 false, null, null, i32 0, metadata !127, i32 1051} ; [ DW_TAG_subprogram ]
!479 = metadata !{i32 786453, i32 0, metadata !"", i32 0, i32 0, i64 0, i64 0, i64 0, i32 0, null, metadata !480, i32 0, i32 0} ; [ DW_TAG_subroutine_type ]
!480 = metadata !{metadata !463, metadata !382, metadata !231}
!481 = metadata !{i32 786478, i32 0, metadata !376, metadata !"bitsToFixed", metadata !"bitsToFixed", metadata !"_ZN13ap_fixed_baseILi26ELi26ELb1EL9ap_q_mode5EL9ap_o_mode3ELi0EE11bitsToFixedEy", metadata !115, i32 1057, metadata !482, i1 false, i1 false, i32 0, i32 0, null, i32 256, i1 false, null, null, i32 0, metadata !127, i32 1057} ; [ DW_TAG_subprogram ]
!482 = metadata !{i32 786453, i32 0, metadata !"", i32 0, i32 0, i64 0, i64 0, i64 0, i32 0, null, metadata !483, i32 0, i32 0} ; [ DW_TAG_subroutine_type ]
!483 = metadata !{metadata !376, metadata !231}
!484 = metadata !{i32 786478, i32 0, metadata !376, metadata !"to_ap_int_base", metadata !"to_ap_int_base", metadata !"_ZNK13ap_fixed_baseILi26ELi26ELb1EL9ap_q_mode5EL9ap_o_mode3ELi0EE14to_ap_int_baseEb", metadata !115, i32 1066, metadata !485, i1 false, i1 false, i32 0, i32 0, null, i32 256, i1 false, null, null, i32 0, metadata !127, i32 1066} ; [ DW_TAG_subprogram ]
!485 = metadata !{i32 786453, i32 0, metadata !"", i32 0, i32 0, i64 0, i64 0, i64 0, i32 0, null, metadata !486, i32 0, i32 0} ; [ DW_TAG_subroutine_type ]
!486 = metadata !{metadata !295, metadata !434, metadata !138}
!487 = metadata !{i32 786478, i32 0, metadata !376, metadata !"to_int", metadata !"to_int", metadata !"_ZNK13ap_fixed_baseILi26ELi26ELb1EL9ap_q_mode5EL9ap_o_mode3ELi0EE6to_intEv", metadata !115, i32 1101, metadata !488, i1 false, i1 false, i32 0, i32 0, null, i32 256, i1 false, null, null, i32 0, metadata !127, i32 1101} ; [ DW_TAG_subprogram ]
!488 = metadata !{i32 786453, i32 0, metadata !"", i32 0, i32 0, i64 0, i64 0, i64 0, i32 0, null, metadata !489, i32 0, i32 0} ; [ DW_TAG_subroutine_type ]
!489 = metadata !{metadata !136, metadata !434}
!490 = metadata !{i32 786478, i32 0, metadata !376, metadata !"to_uint", metadata !"to_uint", metadata !"_ZNK13ap_fixed_baseILi26ELi26ELb1EL9ap_q_mode5EL9ap_o_mode3ELi0EE7to_uintEv", metadata !115, i32 1104, metadata !491, i1 false, i1 false, i32 0, i32 0, null, i32 256, i1 false, null, null, i32 0, metadata !127, i32 1104} ; [ DW_TAG_subprogram ]
!491 = metadata !{i32 786453, i32 0, metadata !"", i32 0, i32 0, i64 0, i64 0, i64 0, i32 0, null, metadata !492, i32 0, i32 0} ; [ DW_TAG_subroutine_type ]
!492 = metadata !{metadata !213, metadata !434}
!493 = metadata !{i32 786478, i32 0, metadata !376, metadata !"to_int64", metadata !"to_int64", metadata !"_ZNK13ap_fixed_baseILi26ELi26ELb1EL9ap_q_mode5EL9ap_o_mode3ELi0EE8to_int64Ev", metadata !115, i32 1107, metadata !494, i1 false, i1 false, i32 0, i32 0, null, i32 256, i1 false, null, null, i32 0, metadata !127, i32 1107} ; [ DW_TAG_subprogram ]
!494 = metadata !{i32 786453, i32 0, metadata !"", i32 0, i32 0, i64 0, i64 0, i64 0, i32 0, null, metadata !495, i32 0, i32 0} ; [ DW_TAG_subroutine_type ]
!495 = metadata !{metadata !225, metadata !434}
!496 = metadata !{i32 786478, i32 0, metadata !376, metadata !"to_uint64", metadata !"to_uint64", metadata !"_ZNK13ap_fixed_baseILi26ELi26ELb1EL9ap_q_mode5EL9ap_o_mode3ELi0EE9to_uint64Ev", metadata !115, i32 1110, metadata !497, i1 false, i1 false, i32 0, i32 0, null, i32 256, i1 false, null, null, i32 0, metadata !127, i32 1110} ; [ DW_TAG_subprogram ]
!497 = metadata !{i32 786453, i32 0, metadata !"", i32 0, i32 0, i64 0, i64 0, i64 0, i32 0, null, metadata !498, i32 0, i32 0} ; [ DW_TAG_subroutine_type ]
!498 = metadata !{metadata !230, metadata !434}
!499 = metadata !{i32 786478, i32 0, metadata !376, metadata !"to_double", metadata !"to_double", metadata !"_ZNK13ap_fixed_baseILi26ELi26ELb1EL9ap_q_mode5EL9ap_o_mode3ELi0EE9to_doubleEv", metadata !115, i32 1113, metadata !500, i1 false, i1 false, i32 0, i32 0, null, i32 256, i1 false, null, null, i32 0, metadata !127, i32 1113} ; [ DW_TAG_subprogram ]
!500 = metadata !{i32 786453, i32 0, metadata !"", i32 0, i32 0, i64 0, i64 0, i64 0, i32 0, null, metadata !501, i32 0, i32 0} ; [ DW_TAG_subroutine_type ]
!501 = metadata !{metadata !244, metadata !434}
!502 = metadata !{i32 786478, i32 0, metadata !376, metadata !"to_float", metadata !"to_float", metadata !"_ZNK13ap_fixed_baseILi26ELi26ELb1EL9ap_q_mode5EL9ap_o_mode3ELi0EE8to_floatEv", metadata !115, i32 1166, metadata !503, i1 false, i1 false, i32 0, i32 0, null, i32 256, i1 false, null, null, i32 0, metadata !127, i32 1166} ; [ DW_TAG_subprogram ]
!503 = metadata !{i32 786453, i32 0, metadata !"", i32 0, i32 0, i64 0, i64 0, i64 0, i32 0, null, metadata !504, i32 0, i32 0} ; [ DW_TAG_subroutine_type ]
!504 = metadata !{metadata !248, metadata !434}
!505 = metadata !{i32 786478, i32 0, metadata !376, metadata !"to_half", metadata !"to_half", metadata !"_ZNK13ap_fixed_baseILi26ELi26ELb1EL9ap_q_mode5EL9ap_o_mode3ELi0EE7to_halfEv", metadata !115, i32 1204, metadata !506, i1 false, i1 false, i32 0, i32 0, null, i32 256, i1 false, null, null, i32 0, metadata !127, i32 1204} ; [ DW_TAG_subprogram ]
!506 = metadata !{i32 786453, i32 0, metadata !"", i32 0, i32 0, i64 0, i64 0, i64 0, i32 0, null, metadata !507, i32 0, i32 0} ; [ DW_TAG_subroutine_type ]
!507 = metadata !{metadata !252, metadata !434}
!508 = metadata !{i32 786478, i32 0, metadata !376, metadata !"operator double", metadata !"operator double", metadata !"_ZNK13ap_fixed_baseILi26ELi26ELb1EL9ap_q_mode5EL9ap_o_mode3ELi0EEcvdEv", metadata !115, i32 1254, metadata !500, i1 false, i1 false, i32 0, i32 0, null, i32 256, i1 false, null, null, i32 0, metadata !127, i32 1254} ; [ DW_TAG_subprogram ]
!509 = metadata !{i32 786478, i32 0, metadata !376, metadata !"operator float", metadata !"operator float", metadata !"_ZNK13ap_fixed_baseILi26ELi26ELb1EL9ap_q_mode5EL9ap_o_mode3ELi0EEcvfEv", metadata !115, i32 1258, metadata !503, i1 false, i1 false, i32 0, i32 0, null, i32 256, i1 false, null, null, i32 0, metadata !127, i32 1258} ; [ DW_TAG_subprogram ]
!510 = metadata !{i32 786478, i32 0, metadata !376, metadata !"operator half", metadata !"operator half", metadata !"_ZNK13ap_fixed_baseILi26ELi26ELb1EL9ap_q_mode5EL9ap_o_mode3ELi0EEcvDhEv", metadata !115, i32 1261, metadata !506, i1 false, i1 false, i32 0, i32 0, null, i32 256, i1 false, null, null, i32 0, metadata !127, i32 1261} ; [ DW_TAG_subprogram ]
!511 = metadata !{i32 786478, i32 0, metadata !376, metadata !"operator _Bool", metadata !"operator _Bool", metadata !"_ZNK13ap_fixed_baseILi26ELi26ELb1EL9ap_q_mode5EL9ap_o_mode3ELi0EEcvbEv", metadata !115, i32 1265, metadata !512, i1 false, i1 false, i32 0, i32 0, null, i32 256, i1 false, null, null, i32 0, metadata !127, i32 1265} ; [ DW_TAG_subprogram ]
!512 = metadata !{i32 786453, i32 0, metadata !"", i32 0, i32 0, i64 0, i64 0, i64 0, i32 0, null, metadata !513, i32 0, i32 0} ; [ DW_TAG_subroutine_type ]
!513 = metadata !{metadata !138, metadata !434}
!514 = metadata !{i32 786478, i32 0, metadata !376, metadata !"operator char", metadata !"operator char", metadata !"_ZNK13ap_fixed_baseILi26ELi26ELb1EL9ap_q_mode5EL9ap_o_mode3ELi0EEcvcEv", metadata !115, i32 1269, metadata !515, i1 false, i1 false, i32 0, i32 0, null, i32 256, i1 false, null, null, i32 0, metadata !127, i32 1269} ; [ DW_TAG_subprogram ]
!515 = metadata !{i32 786453, i32 0, metadata !"", i32 0, i32 0, i64 0, i64 0, i64 0, i32 0, null, metadata !516, i32 0, i32 0} ; [ DW_TAG_subroutine_type ]
!516 = metadata !{metadata !190, metadata !434}
!517 = metadata !{i32 786478, i32 0, metadata !376, metadata !"operator signed char", metadata !"operator signed char", metadata !"_ZNK13ap_fixed_baseILi26ELi26ELb1EL9ap_q_mode5EL9ap_o_mode3ELi0EEcvaEv", metadata !115, i32 1273, metadata !518, i1 false, i1 false, i32 0, i32 0, null, i32 256, i1 false, null, null, i32 0, metadata !127, i32 1273} ; [ DW_TAG_subprogram ]
!518 = metadata !{i32 786453, i32 0, metadata !"", i32 0, i32 0, i64 0, i64 0, i64 0, i32 0, null, metadata !519, i32 0, i32 0} ; [ DW_TAG_subroutine_type ]
!519 = metadata !{metadata !194, metadata !434}
!520 = metadata !{i32 786478, i32 0, metadata !376, metadata !"operator unsigned char", metadata !"operator unsigned char", metadata !"_ZNK13ap_fixed_baseILi26ELi26ELb1EL9ap_q_mode5EL9ap_o_mode3ELi0EEcvhEv", metadata !115, i32 1277, metadata !521, i1 false, i1 false, i32 0, i32 0, null, i32 256, i1 false, null, null, i32 0, metadata !127, i32 1277} ; [ DW_TAG_subprogram ]
!521 = metadata !{i32 786453, i32 0, metadata !"", i32 0, i32 0, i64 0, i64 0, i64 0, i32 0, null, metadata !522, i32 0, i32 0} ; [ DW_TAG_subroutine_type ]
!522 = metadata !{metadata !198, metadata !434}
!523 = metadata !{i32 786478, i32 0, metadata !376, metadata !"operator short", metadata !"operator short", metadata !"_ZNK13ap_fixed_baseILi26ELi26ELb1EL9ap_q_mode5EL9ap_o_mode3ELi0EEcvsEv", metadata !115, i32 1281, metadata !524, i1 false, i1 false, i32 0, i32 0, null, i32 256, i1 false, null, null, i32 0, metadata !127, i32 1281} ; [ DW_TAG_subprogram ]
!524 = metadata !{i32 786453, i32 0, metadata !"", i32 0, i32 0, i64 0, i64 0, i64 0, i32 0, null, metadata !525, i32 0, i32 0} ; [ DW_TAG_subroutine_type ]
!525 = metadata !{metadata !202, metadata !434}
!526 = metadata !{i32 786478, i32 0, metadata !376, metadata !"operator unsigned short", metadata !"operator unsigned short", metadata !"_ZNK13ap_fixed_baseILi26ELi26ELb1EL9ap_q_mode5EL9ap_o_mode3ELi0EEcvtEv", metadata !115, i32 1285, metadata !527, i1 false, i1 false, i32 0, i32 0, null, i32 256, i1 false, null, null, i32 0, metadata !127, i32 1285} ; [ DW_TAG_subprogram ]
!527 = metadata !{i32 786453, i32 0, metadata !"", i32 0, i32 0, i64 0, i64 0, i64 0, i32 0, null, metadata !528, i32 0, i32 0} ; [ DW_TAG_subroutine_type ]
!528 = metadata !{metadata !206, metadata !434}
!529 = metadata !{i32 786478, i32 0, metadata !376, metadata !"operator int", metadata !"operator int", metadata !"_ZNK13ap_fixed_baseILi26ELi26ELb1EL9ap_q_mode5EL9ap_o_mode3ELi0EEcviEv", metadata !115, i32 1290, metadata !488, i1 false, i1 false, i32 0, i32 0, null, i32 256, i1 false, null, null, i32 0, metadata !127, i32 1290} ; [ DW_TAG_subprogram ]
!530 = metadata !{i32 786478, i32 0, metadata !376, metadata !"operator unsigned int", metadata !"operator unsigned int", metadata !"_ZNK13ap_fixed_baseILi26ELi26ELb1EL9ap_q_mode5EL9ap_o_mode3ELi0EEcvjEv", metadata !115, i32 1294, metadata !491, i1 false, i1 false, i32 0, i32 0, null, i32 256, i1 false, null, null, i32 0, metadata !127, i32 1294} ; [ DW_TAG_subprogram ]
!531 = metadata !{i32 786478, i32 0, metadata !376, metadata !"operator long", metadata !"operator long", metadata !"_ZNK13ap_fixed_baseILi26ELi26ELb1EL9ap_q_mode5EL9ap_o_mode3ELi0EEcvlEv", metadata !115, i32 1299, metadata !532, i1 false, i1 false, i32 0, i32 0, null, i32 256, i1 false, null, null, i32 0, metadata !127, i32 1299} ; [ DW_TAG_subprogram ]
!532 = metadata !{i32 786453, i32 0, metadata !"", i32 0, i32 0, i64 0, i64 0, i64 0, i32 0, null, metadata !533, i32 0, i32 0} ; [ DW_TAG_subroutine_type ]
!533 = metadata !{metadata !217, metadata !434}
!534 = metadata !{i32 786478, i32 0, metadata !376, metadata !"operator unsigned long", metadata !"operator unsigned long", metadata !"_ZNK13ap_fixed_baseILi26ELi26ELb1EL9ap_q_mode5EL9ap_o_mode3ELi0EEcvmEv", metadata !115, i32 1303, metadata !535, i1 false, i1 false, i32 0, i32 0, null, i32 256, i1 false, null, null, i32 0, metadata !127, i32 1303} ; [ DW_TAG_subprogram ]
!535 = metadata !{i32 786453, i32 0, metadata !"", i32 0, i32 0, i64 0, i64 0, i64 0, i32 0, null, metadata !536, i32 0, i32 0} ; [ DW_TAG_subroutine_type ]
!536 = metadata !{metadata !221, metadata !434}
!537 = metadata !{i32 786478, i32 0, metadata !376, metadata !"operator unsigned long long", metadata !"operator unsigned long long", metadata !"_ZNK13ap_fixed_baseILi26ELi26ELb1EL9ap_q_mode5EL9ap_o_mode3ELi0EEcvyEv", metadata !115, i32 1316, metadata !538, i1 false, i1 false, i32 0, i32 0, null, i32 256, i1 false, null, null, i32 0, metadata !127, i32 1316} ; [ DW_TAG_subprogram ]
!538 = metadata !{i32 786453, i32 0, metadata !"", i32 0, i32 0, i64 0, i64 0, i64 0, i32 0, null, metadata !539, i32 0, i32 0} ; [ DW_TAG_subroutine_type ]
!539 = metadata !{metadata !231, metadata !434}
!540 = metadata !{i32 786478, i32 0, metadata !376, metadata !"operator long long", metadata !"operator long long", metadata !"_ZNK13ap_fixed_baseILi26ELi26ELb1EL9ap_q_mode5EL9ap_o_mode3ELi0EEcvxEv", metadata !115, i32 1320, metadata !541, i1 false, i1 false, i32 0, i32 0, null, i32 256, i1 false, null, null, i32 0, metadata !127, i32 1320} ; [ DW_TAG_subprogram ]
!541 = metadata !{i32 786453, i32 0, metadata !"", i32 0, i32 0, i64 0, i64 0, i64 0, i32 0, null, metadata !542, i32 0, i32 0} ; [ DW_TAG_subroutine_type ]
!542 = metadata !{metadata !226, metadata !434}
!543 = metadata !{i32 786478, i32 0, metadata !376, metadata !"length", metadata !"length", metadata !"_ZNK13ap_fixed_baseILi26ELi26ELb1EL9ap_q_mode5EL9ap_o_mode3ELi0EE6lengthEv", metadata !115, i32 1324, metadata !488, i1 false, i1 false, i32 0, i32 0, null, i32 256, i1 false, null, null, i32 0, metadata !127, i32 1324} ; [ DW_TAG_subprogram ]
!544 = metadata !{i32 786478, i32 0, metadata !376, metadata !"countLeadingZeros", metadata !"countLeadingZeros", metadata !"_ZN13ap_fixed_baseILi26ELi26ELb1EL9ap_q_mode5EL9ap_o_mode3ELi0EE17countLeadingZerosEv", metadata !115, i32 1328, metadata !545, i1 false, i1 false, i32 0, i32 0, null, i32 256, i1 false, null, null, i32 0, metadata !127, i32 1328} ; [ DW_TAG_subprogram ]
!545 = metadata !{i32 786453, i32 0, metadata !"", i32 0, i32 0, i64 0, i64 0, i64 0, i32 0, null, metadata !546, i32 0, i32 0} ; [ DW_TAG_subroutine_type ]
!546 = metadata !{metadata !136, metadata !382}
!547 = metadata !{i32 786478, i32 0, metadata !376, metadata !"operator++", metadata !"operator++", metadata !"_ZN13ap_fixed_baseILi26ELi26ELb1EL9ap_q_mode5EL9ap_o_mode3ELi0EEppEv", metadata !115, i32 1429, metadata !548, i1 false, i1 false, i32 0, i32 0, null, i32 256, i1 false, null, null, i32 0, metadata !127, i32 1429} ; [ DW_TAG_subprogram ]
!548 = metadata !{i32 786453, i32 0, metadata !"", i32 0, i32 0, i64 0, i64 0, i64 0, i32 0, null, metadata !549, i32 0, i32 0} ; [ DW_TAG_subroutine_type ]
!549 = metadata !{metadata !463, metadata !382}
!550 = metadata !{i32 786478, i32 0, metadata !376, metadata !"operator--", metadata !"operator--", metadata !"_ZN13ap_fixed_baseILi26ELi26ELb1EL9ap_q_mode5EL9ap_o_mode3ELi0EEmmEv", metadata !115, i32 1433, metadata !548, i1 false, i1 false, i32 0, i32 0, null, i32 256, i1 false, null, null, i32 0, metadata !127, i32 1433} ; [ DW_TAG_subprogram ]
!551 = metadata !{i32 786478, i32 0, metadata !376, metadata !"operator++", metadata !"operator++", metadata !"_ZN13ap_fixed_baseILi26ELi26ELb1EL9ap_q_mode5EL9ap_o_mode3ELi0EEppEi", metadata !115, i32 1441, metadata !552, i1 false, i1 false, i32 0, i32 0, null, i32 256, i1 false, null, null, i32 0, metadata !127, i32 1441} ; [ DW_TAG_subprogram ]
!552 = metadata !{i32 786453, i32 0, metadata !"", i32 0, i32 0, i64 0, i64 0, i64 0, i32 0, null, metadata !553, i32 0, i32 0} ; [ DW_TAG_subroutine_type ]
!553 = metadata !{metadata !435, metadata !382, metadata !136}
!554 = metadata !{i32 786478, i32 0, metadata !376, metadata !"operator--", metadata !"operator--", metadata !"_ZN13ap_fixed_baseILi26ELi26ELb1EL9ap_q_mode5EL9ap_o_mode3ELi0EEmmEi", metadata !115, i32 1447, metadata !552, i1 false, i1 false, i32 0, i32 0, null, i32 256, i1 false, null, null, i32 0, metadata !127, i32 1447} ; [ DW_TAG_subprogram ]
!555 = metadata !{i32 786478, i32 0, metadata !376, metadata !"operator+", metadata !"operator+", metadata !"_ZN13ap_fixed_baseILi26ELi26ELb1EL9ap_q_mode5EL9ap_o_mode3ELi0EEpsEv", metadata !115, i32 1455, metadata !556, i1 false, i1 false, i32 0, i32 0, null, i32 256, i1 false, null, null, i32 0, metadata !127, i32 1455} ; [ DW_TAG_subprogram ]
!556 = metadata !{i32 786453, i32 0, metadata !"", i32 0, i32 0, i64 0, i64 0, i64 0, i32 0, null, metadata !557, i32 0, i32 0} ; [ DW_TAG_subroutine_type ]
!557 = metadata !{metadata !376, metadata !382}
!558 = metadata !{i32 786478, i32 0, metadata !376, metadata !"operator-", metadata !"operator-", metadata !"_ZNK13ap_fixed_baseILi26ELi26ELb1EL9ap_q_mode5EL9ap_o_mode3ELi0EEngEv", metadata !115, i32 1459, metadata !559, i1 false, i1 false, i32 0, i32 0, null, i32 256, i1 false, null, null, i32 0, metadata !127, i32 1459} ; [ DW_TAG_subprogram ]
!559 = metadata !{i32 786453, i32 0, metadata !"", i32 0, i32 0, i64 0, i64 0, i64 0, i32 0, null, metadata !560, i32 0, i32 0} ; [ DW_TAG_subroutine_type ]
!560 = metadata !{metadata !370, metadata !434}
!561 = metadata !{i32 786478, i32 0, metadata !376, metadata !"getNeg", metadata !"getNeg", metadata !"_ZN13ap_fixed_baseILi26ELi26ELb1EL9ap_q_mode5EL9ap_o_mode3ELi0EE6getNegEv", metadata !115, i32 1465, metadata !556, i1 false, i1 false, i32 0, i32 0, null, i32 256, i1 false, null, null, i32 0, metadata !127, i32 1465} ; [ DW_TAG_subprogram ]
!562 = metadata !{i32 786478, i32 0, metadata !376, metadata !"operator!", metadata !"operator!", metadata !"_ZNK13ap_fixed_baseILi26ELi26ELb1EL9ap_q_mode5EL9ap_o_mode3ELi0EEntEv", metadata !115, i32 1473, metadata !512, i1 false, i1 false, i32 0, i32 0, null, i32 256, i1 false, null, null, i32 0, metadata !127, i32 1473} ; [ DW_TAG_subprogram ]
!563 = metadata !{i32 786478, i32 0, metadata !376, metadata !"operator~", metadata !"operator~", metadata !"_ZNK13ap_fixed_baseILi26ELi26ELb1EL9ap_q_mode5EL9ap_o_mode3ELi0EEcoEv", metadata !115, i32 1479, metadata !564, i1 false, i1 false, i32 0, i32 0, null, i32 256, i1 false, null, null, i32 0, metadata !127, i32 1479} ; [ DW_TAG_subprogram ]
!564 = metadata !{i32 786453, i32 0, metadata !"", i32 0, i32 0, i64 0, i64 0, i64 0, i32 0, null, metadata !565, i32 0, i32 0} ; [ DW_TAG_subroutine_type ]
!565 = metadata !{metadata !376, metadata !434}
!566 = metadata !{i32 786478, i32 0, metadata !376, metadata !"operator<<", metadata !"operator<<", metadata !"_ZNK13ap_fixed_baseILi26ELi26ELb1EL9ap_q_mode5EL9ap_o_mode3ELi0EElsEi", metadata !115, i32 1502, metadata !567, i1 false, i1 false, i32 0, i32 0, null, i32 256, i1 false, null, null, i32 0, metadata !127, i32 1502} ; [ DW_TAG_subprogram ]
!567 = metadata !{i32 786453, i32 0, metadata !"", i32 0, i32 0, i64 0, i64 0, i64 0, i32 0, null, metadata !568, i32 0, i32 0} ; [ DW_TAG_subroutine_type ]
!568 = metadata !{metadata !376, metadata !434, metadata !136}
!569 = metadata !{i32 786478, i32 0, metadata !376, metadata !"operator<<", metadata !"operator<<", metadata !"_ZNK13ap_fixed_baseILi26ELi26ELb1EL9ap_q_mode5EL9ap_o_mode3ELi0EElsEj", metadata !115, i32 1561, metadata !570, i1 false, i1 false, i32 0, i32 0, null, i32 256, i1 false, null, null, i32 0, metadata !127, i32 1561} ; [ DW_TAG_subprogram ]
!570 = metadata !{i32 786453, i32 0, metadata !"", i32 0, i32 0, i64 0, i64 0, i64 0, i32 0, null, metadata !571, i32 0, i32 0} ; [ DW_TAG_subroutine_type ]
!571 = metadata !{metadata !376, metadata !434, metadata !213}
!572 = metadata !{i32 786478, i32 0, metadata !376, metadata !"operator>>", metadata !"operator>>", metadata !"_ZNK13ap_fixed_baseILi26ELi26ELb1EL9ap_q_mode5EL9ap_o_mode3ELi0EErsEi", metadata !115, i32 1605, metadata !567, i1 false, i1 false, i32 0, i32 0, null, i32 256, i1 false, null, null, i32 0, metadata !127, i32 1605} ; [ DW_TAG_subprogram ]
!573 = metadata !{i32 786478, i32 0, metadata !376, metadata !"operator>>", metadata !"operator>>", metadata !"_ZNK13ap_fixed_baseILi26ELi26ELb1EL9ap_q_mode5EL9ap_o_mode3ELi0EErsEj", metadata !115, i32 1663, metadata !570, i1 false, i1 false, i32 0, i32 0, null, i32 256, i1 false, null, null, i32 0, metadata !127, i32 1663} ; [ DW_TAG_subprogram ]
!574 = metadata !{i32 786478, i32 0, metadata !376, metadata !"operator<<=", metadata !"operator<<=", metadata !"_ZN13ap_fixed_baseILi26ELi26ELb1EL9ap_q_mode5EL9ap_o_mode3ELi0EElSEi", metadata !115, i32 1715, metadata !575, i1 false, i1 false, i32 0, i32 0, null, i32 256, i1 false, null, null, i32 0, metadata !127, i32 1715} ; [ DW_TAG_subprogram ]
!575 = metadata !{i32 786453, i32 0, metadata !"", i32 0, i32 0, i64 0, i64 0, i64 0, i32 0, null, metadata !576, i32 0, i32 0} ; [ DW_TAG_subroutine_type ]
!576 = metadata !{metadata !463, metadata !382, metadata !136}
!577 = metadata !{i32 786478, i32 0, metadata !376, metadata !"operator<<=", metadata !"operator<<=", metadata !"_ZN13ap_fixed_baseILi26ELi26ELb1EL9ap_q_mode5EL9ap_o_mode3ELi0EElSEj", metadata !115, i32 1778, metadata !578, i1 false, i1 false, i32 0, i32 0, null, i32 256, i1 false, null, null, i32 0, metadata !127, i32 1778} ; [ DW_TAG_subprogram ]
!578 = metadata !{i32 786453, i32 0, metadata !"", i32 0, i32 0, i64 0, i64 0, i64 0, i32 0, null, metadata !579, i32 0, i32 0} ; [ DW_TAG_subroutine_type ]
!579 = metadata !{metadata !463, metadata !382, metadata !213}
!580 = metadata !{i32 786478, i32 0, metadata !376, metadata !"operator>>=", metadata !"operator>>=", metadata !"_ZN13ap_fixed_baseILi26ELi26ELb1EL9ap_q_mode5EL9ap_o_mode3ELi0EErSEi", metadata !115, i32 1825, metadata !575, i1 false, i1 false, i32 0, i32 0, null, i32 256, i1 false, null, null, i32 0, metadata !127, i32 1825} ; [ DW_TAG_subprogram ]
!581 = metadata !{i32 786478, i32 0, metadata !376, metadata !"operator>>=", metadata !"operator>>=", metadata !"_ZN13ap_fixed_baseILi26ELi26ELb1EL9ap_q_mode5EL9ap_o_mode3ELi0EErSEj", metadata !115, i32 1887, metadata !578, i1 false, i1 false, i32 0, i32 0, null, i32 256, i1 false, null, null, i32 0, metadata !127, i32 1887} ; [ DW_TAG_subprogram ]
!582 = metadata !{i32 786478, i32 0, metadata !376, metadata !"operator==", metadata !"operator==", metadata !"_ZNK13ap_fixed_baseILi26ELi26ELb1EL9ap_q_mode5EL9ap_o_mode3ELi0EEeqEd", metadata !115, i32 1965, metadata !583, i1 false, i1 false, i32 0, i32 0, null, i32 256, i1 false, null, null, i32 0, metadata !127, i32 1965} ; [ DW_TAG_subprogram ]
!583 = metadata !{i32 786453, i32 0, metadata !"", i32 0, i32 0, i64 0, i64 0, i64 0, i32 0, null, metadata !584, i32 0, i32 0} ; [ DW_TAG_subroutine_type ]
!584 = metadata !{metadata !138, metadata !434, metadata !244}
!585 = metadata !{i32 786478, i32 0, metadata !376, metadata !"operator!=", metadata !"operator!=", metadata !"_ZNK13ap_fixed_baseILi26ELi26ELb1EL9ap_q_mode5EL9ap_o_mode3ELi0EEneEd", metadata !115, i32 1966, metadata !583, i1 false, i1 false, i32 0, i32 0, null, i32 256, i1 false, null, null, i32 0, metadata !127, i32 1966} ; [ DW_TAG_subprogram ]
!586 = metadata !{i32 786478, i32 0, metadata !376, metadata !"operator>", metadata !"operator>", metadata !"_ZNK13ap_fixed_baseILi26ELi26ELb1EL9ap_q_mode5EL9ap_o_mode3ELi0EEgtEd", metadata !115, i32 1967, metadata !583, i1 false, i1 false, i32 0, i32 0, null, i32 256, i1 false, null, null, i32 0, metadata !127, i32 1967} ; [ DW_TAG_subprogram ]
!587 = metadata !{i32 786478, i32 0, metadata !376, metadata !"operator>=", metadata !"operator>=", metadata !"_ZNK13ap_fixed_baseILi26ELi26ELb1EL9ap_q_mode5EL9ap_o_mode3ELi0EEgeEd", metadata !115, i32 1968, metadata !583, i1 false, i1 false, i32 0, i32 0, null, i32 256, i1 false, null, null, i32 0, metadata !127, i32 1968} ; [ DW_TAG_subprogram ]
!588 = metadata !{i32 786478, i32 0, metadata !376, metadata !"operator<", metadata !"operator<", metadata !"_ZNK13ap_fixed_baseILi26ELi26ELb1EL9ap_q_mode5EL9ap_o_mode3ELi0EEltEd", metadata !115, i32 1969, metadata !583, i1 false, i1 false, i32 0, i32 0, null, i32 256, i1 false, null, null, i32 0, metadata !127, i32 1969} ; [ DW_TAG_subprogram ]
!589 = metadata !{i32 786478, i32 0, metadata !376, metadata !"operator<=", metadata !"operator<=", metadata !"_ZNK13ap_fixed_baseILi26ELi26ELb1EL9ap_q_mode5EL9ap_o_mode3ELi0EEleEd", metadata !115, i32 1970, metadata !583, i1 false, i1 false, i32 0, i32 0, null, i32 256, i1 false, null, null, i32 0, metadata !127, i32 1970} ; [ DW_TAG_subprogram ]
!590 = metadata !{i32 786478, i32 0, metadata !376, metadata !"operator[]", metadata !"operator[]", metadata !"_ZN13ap_fixed_baseILi26ELi26ELb1EL9ap_q_mode5EL9ap_o_mode3ELi0EEixEj", metadata !115, i32 1973, metadata !591, i1 false, i1 false, i32 0, i32 0, null, i32 256, i1 false, null, null, i32 0, metadata !127, i32 1973} ; [ DW_TAG_subprogram ]
!591 = metadata !{i32 786453, i32 0, metadata !"", i32 0, i32 0, i64 0, i64 0, i64 0, i32 0, null, metadata !592, i32 0, i32 0} ; [ DW_TAG_subroutine_type ]
!592 = metadata !{metadata !593, metadata !382, metadata !213}
!593 = metadata !{i32 786434, null, metadata !"af_bit_ref<26, 26, true, 5, 3, 0>", metadata !115, i32 93, i32 0, i32 0, i32 0, i32 4, null, null, i32 0} ; [ DW_TAG_class_type ]
!594 = metadata !{i32 786478, i32 0, metadata !376, metadata !"operator[]", metadata !"operator[]", metadata !"_ZNK13ap_fixed_baseILi26ELi26ELb1EL9ap_q_mode5EL9ap_o_mode3ELi0EEixEj", metadata !115, i32 1985, metadata !595, i1 false, i1 false, i32 0, i32 0, null, i32 256, i1 false, null, null, i32 0, metadata !127, i32 1985} ; [ DW_TAG_subprogram ]
!595 = metadata !{i32 786453, i32 0, metadata !"", i32 0, i32 0, i64 0, i64 0, i64 0, i32 0, null, metadata !596, i32 0, i32 0} ; [ DW_TAG_subroutine_type ]
!596 = metadata !{metadata !138, metadata !434, metadata !213}
!597 = metadata !{i32 786478, i32 0, metadata !376, metadata !"bit", metadata !"bit", metadata !"_ZN13ap_fixed_baseILi26ELi26ELb1EL9ap_q_mode5EL9ap_o_mode3ELi0EE3bitEj", metadata !115, i32 1990, metadata !591, i1 false, i1 false, i32 0, i32 0, null, i32 256, i1 false, null, null, i32 0, metadata !127, i32 1990} ; [ DW_TAG_subprogram ]
!598 = metadata !{i32 786478, i32 0, metadata !376, metadata !"bit", metadata !"bit", metadata !"_ZNK13ap_fixed_baseILi26ELi26ELb1EL9ap_q_mode5EL9ap_o_mode3ELi0EE3bitEj", metadata !115, i32 2003, metadata !595, i1 false, i1 false, i32 0, i32 0, null, i32 256, i1 false, null, null, i32 0, metadata !127, i32 2003} ; [ DW_TAG_subprogram ]
!599 = metadata !{i32 786478, i32 0, metadata !376, metadata !"get_bit", metadata !"get_bit", metadata !"_ZNK13ap_fixed_baseILi26ELi26ELb1EL9ap_q_mode5EL9ap_o_mode3ELi0EE7get_bitEi", metadata !115, i32 2015, metadata !600, i1 false, i1 false, i32 0, i32 0, null, i32 256, i1 false, null, null, i32 0, metadata !127, i32 2015} ; [ DW_TAG_subprogram ]
!600 = metadata !{i32 786453, i32 0, metadata !"", i32 0, i32 0, i64 0, i64 0, i64 0, i32 0, null, metadata !601, i32 0, i32 0} ; [ DW_TAG_subroutine_type ]
!601 = metadata !{metadata !138, metadata !434, metadata !136}
!602 = metadata !{i32 786478, i32 0, metadata !376, metadata !"get_bit", metadata !"get_bit", metadata !"_ZN13ap_fixed_baseILi26ELi26ELb1EL9ap_q_mode5EL9ap_o_mode3ELi0EE7get_bitEi", metadata !115, i32 2021, metadata !603, i1 false, i1 false, i32 0, i32 0, null, i32 256, i1 false, null, null, i32 0, metadata !127, i32 2021} ; [ DW_TAG_subprogram ]
!603 = metadata !{i32 786453, i32 0, metadata !"", i32 0, i32 0, i64 0, i64 0, i64 0, i32 0, null, metadata !604, i32 0, i32 0} ; [ DW_TAG_subroutine_type ]
!604 = metadata !{metadata !593, metadata !382, metadata !136}
!605 = metadata !{i32 786478, i32 0, metadata !376, metadata !"range", metadata !"range", metadata !"_ZN13ap_fixed_baseILi26ELi26ELb1EL9ap_q_mode5EL9ap_o_mode3ELi0EE5rangeEii", metadata !115, i32 2036, metadata !606, i1 false, i1 false, i32 0, i32 0, null, i32 256, i1 false, null, null, i32 0, metadata !127, i32 2036} ; [ DW_TAG_subprogram ]
!606 = metadata !{i32 786453, i32 0, metadata !"", i32 0, i32 0, i64 0, i64 0, i64 0, i32 0, null, metadata !607, i32 0, i32 0} ; [ DW_TAG_subroutine_type ]
!607 = metadata !{metadata !608, metadata !382, metadata !136, metadata !136}
!608 = metadata !{i32 786434, null, metadata !"af_range_ref<26, 26, true, 5, 3, 0>", metadata !115, i32 238, i32 0, i32 0, i32 0, i32 4, null, null, i32 0} ; [ DW_TAG_class_type ]
!609 = metadata !{i32 786478, i32 0, metadata !376, metadata !"operator()", metadata !"operator()", metadata !"_ZN13ap_fixed_baseILi26ELi26ELb1EL9ap_q_mode5EL9ap_o_mode3ELi0EEclEii", metadata !115, i32 2042, metadata !606, i1 false, i1 false, i32 0, i32 0, null, i32 256, i1 false, null, null, i32 0, metadata !127, i32 2042} ; [ DW_TAG_subprogram ]
!610 = metadata !{i32 786478, i32 0, metadata !376, metadata !"range", metadata !"range", metadata !"_ZNK13ap_fixed_baseILi26ELi26ELb1EL9ap_q_mode5EL9ap_o_mode3ELi0EE5rangeEii", metadata !115, i32 2048, metadata !611, i1 false, i1 false, i32 0, i32 0, null, i32 256, i1 false, null, null, i32 0, metadata !127, i32 2048} ; [ DW_TAG_subprogram ]
!611 = metadata !{i32 786453, i32 0, metadata !"", i32 0, i32 0, i64 0, i64 0, i64 0, i32 0, null, metadata !612, i32 0, i32 0} ; [ DW_TAG_subroutine_type ]
!612 = metadata !{metadata !608, metadata !434, metadata !136, metadata !136}
!613 = metadata !{i32 786478, i32 0, metadata !376, metadata !"operator()", metadata !"operator()", metadata !"_ZNK13ap_fixed_baseILi26ELi26ELb1EL9ap_q_mode5EL9ap_o_mode3ELi0EEclEii", metadata !115, i32 2097, metadata !611, i1 false, i1 false, i32 0, i32 0, null, i32 256, i1 false, null, null, i32 0, metadata !127, i32 2097} ; [ DW_TAG_subprogram ]
!614 = metadata !{i32 786478, i32 0, metadata !376, metadata !"range", metadata !"range", metadata !"_ZN13ap_fixed_baseILi26ELi26ELb1EL9ap_q_mode5EL9ap_o_mode3ELi0EE5rangeEv", metadata !115, i32 2102, metadata !615, i1 false, i1 false, i32 0, i32 0, null, i32 256, i1 false, null, null, i32 0, metadata !127, i32 2102} ; [ DW_TAG_subprogram ]
!615 = metadata !{i32 786453, i32 0, metadata !"", i32 0, i32 0, i64 0, i64 0, i64 0, i32 0, null, metadata !616, i32 0, i32 0} ; [ DW_TAG_subroutine_type ]
!616 = metadata !{metadata !608, metadata !382}
!617 = metadata !{i32 786478, i32 0, metadata !376, metadata !"range", metadata !"range", metadata !"_ZNK13ap_fixed_baseILi26ELi26ELb1EL9ap_q_mode5EL9ap_o_mode3ELi0EE5rangeEv", metadata !115, i32 2107, metadata !618, i1 false, i1 false, i32 0, i32 0, null, i32 256, i1 false, null, null, i32 0, metadata !127, i32 2107} ; [ DW_TAG_subprogram ]
!618 = metadata !{i32 786453, i32 0, metadata !"", i32 0, i32 0, i64 0, i64 0, i64 0, i32 0, null, metadata !619, i32 0, i32 0} ; [ DW_TAG_subroutine_type ]
!619 = metadata !{metadata !608, metadata !434}
!620 = metadata !{i32 786478, i32 0, metadata !376, metadata !"is_zero", metadata !"is_zero", metadata !"_ZNK13ap_fixed_baseILi26ELi26ELb1EL9ap_q_mode5EL9ap_o_mode3ELi0EE7is_zeroEv", metadata !115, i32 2111, metadata !512, i1 false, i1 false, i32 0, i32 0, null, i32 256, i1 false, null, null, i32 0, metadata !127, i32 2111} ; [ DW_TAG_subprogram ]
!621 = metadata !{i32 786478, i32 0, metadata !376, metadata !"is_neg", metadata !"is_neg", metadata !"_ZNK13ap_fixed_baseILi26ELi26ELb1EL9ap_q_mode5EL9ap_o_mode3ELi0EE6is_negEv", metadata !115, i32 2115, metadata !512, i1 false, i1 false, i32 0, i32 0, null, i32 256, i1 false, null, null, i32 0, metadata !127, i32 2115} ; [ DW_TAG_subprogram ]
!622 = metadata !{i32 786478, i32 0, metadata !376, metadata !"wl", metadata !"wl", metadata !"_ZNK13ap_fixed_baseILi26ELi26ELb1EL9ap_q_mode5EL9ap_o_mode3ELi0EE2wlEv", metadata !115, i32 2121, metadata !488, i1 false, i1 false, i32 0, i32 0, null, i32 256, i1 false, null, null, i32 0, metadata !127, i32 2121} ; [ DW_TAG_subprogram ]
!623 = metadata !{i32 786478, i32 0, metadata !376, metadata !"iwl", metadata !"iwl", metadata !"_ZNK13ap_fixed_baseILi26ELi26ELb1EL9ap_q_mode5EL9ap_o_mode3ELi0EE3iwlEv", metadata !115, i32 2125, metadata !488, i1 false, i1 false, i32 0, i32 0, null, i32 256, i1 false, null, null, i32 0, metadata !127, i32 2125} ; [ DW_TAG_subprogram ]
!624 = metadata !{i32 786478, i32 0, metadata !376, metadata !"q_mode", metadata !"q_mode", metadata !"_ZNK13ap_fixed_baseILi26ELi26ELb1EL9ap_q_mode5EL9ap_o_mode3ELi0EE6q_modeEv", metadata !115, i32 2129, metadata !625, i1 false, i1 false, i32 0, i32 0, null, i32 256, i1 false, null, null, i32 0, metadata !127, i32 2129} ; [ DW_TAG_subprogram ]
!625 = metadata !{i32 786453, i32 0, metadata !"", i32 0, i32 0, i64 0, i64 0, i64 0, i32 0, null, metadata !626, i32 0, i32 0} ; [ DW_TAG_subroutine_type ]
!626 = metadata !{metadata !159, metadata !434}
!627 = metadata !{i32 786478, i32 0, metadata !376, metadata !"o_mode", metadata !"o_mode", metadata !"_ZNK13ap_fixed_baseILi26ELi26ELb1EL9ap_q_mode5EL9ap_o_mode3ELi0EE6o_modeEv", metadata !115, i32 2133, metadata !628, i1 false, i1 false, i32 0, i32 0, null, i32 256, i1 false, null, null, i32 0, metadata !127, i32 2133} ; [ DW_TAG_subprogram ]
!628 = metadata !{i32 786453, i32 0, metadata !"", i32 0, i32 0, i64 0, i64 0, i64 0, i32 0, null, metadata !629, i32 0, i32 0} ; [ DW_TAG_subroutine_type ]
!629 = metadata !{metadata !170, metadata !434}
!630 = metadata !{i32 786478, i32 0, metadata !376, metadata !"n_bits", metadata !"n_bits", metadata !"_ZNK13ap_fixed_baseILi26ELi26ELb1EL9ap_q_mode5EL9ap_o_mode3ELi0EE6n_bitsEv", metadata !115, i32 2137, metadata !488, i1 false, i1 false, i32 0, i32 0, null, i32 256, i1 false, null, null, i32 0, metadata !127, i32 2137} ; [ DW_TAG_subprogram ]
!631 = metadata !{i32 786478, i32 0, metadata !376, metadata !"to_string", metadata !"to_string", metadata !"_ZN13ap_fixed_baseILi26ELi26ELb1EL9ap_q_mode5EL9ap_o_mode3ELi0EE9to_stringE8BaseMode", metadata !115, i32 2141, metadata !632, i1 false, i1 false, i32 0, i32 0, null, i32 256, i1 false, null, null, i32 0, metadata !127, i32 2141} ; [ DW_TAG_subprogram ]
!632 = metadata !{i32 786453, i32 0, metadata !"", i32 0, i32 0, i64 0, i64 0, i64 0, i32 0, null, metadata !633, i32 0, i32 0} ; [ DW_TAG_subroutine_type ]
!633 = metadata !{metadata !634, metadata !382, metadata !635}
!634 = metadata !{i32 786447, null, metadata !"", null, i32 0, i64 64, i64 64, i64 0, i32 0, metadata !190} ; [ DW_TAG_pointer_type ]
!635 = metadata !{i32 786436, null, metadata !"BaseMode", metadata !160, i32 603, i64 5, i64 8, i32 0, i32 0, null, metadata !636, i32 0, i32 0} ; [ DW_TAG_enumeration_type ]
!636 = metadata !{metadata !637, metadata !638, metadata !639, metadata !640}
!637 = metadata !{i32 786472, metadata !"SC_BIN", i64 2} ; [ DW_TAG_enumerator ]
!638 = metadata !{i32 786472, metadata !"SC_OCT", i64 8} ; [ DW_TAG_enumerator ]
!639 = metadata !{i32 786472, metadata !"SC_DEC", i64 10} ; [ DW_TAG_enumerator ]
!640 = metadata !{i32 786472, metadata !"SC_HEX", i64 16} ; [ DW_TAG_enumerator ]
!641 = metadata !{i32 786478, i32 0, metadata !376, metadata !"to_string", metadata !"to_string", metadata !"_ZN13ap_fixed_baseILi26ELi26ELb1EL9ap_q_mode5EL9ap_o_mode3ELi0EE9to_stringEa", metadata !115, i32 2145, metadata !642, i1 false, i1 false, i32 0, i32 0, null, i32 256, i1 false, null, null, i32 0, metadata !127, i32 2145} ; [ DW_TAG_subprogram ]
!642 = metadata !{i32 786453, i32 0, metadata !"", i32 0, i32 0, i64 0, i64 0, i64 0, i32 0, null, metadata !643, i32 0, i32 0} ; [ DW_TAG_subroutine_type ]
!643 = metadata !{metadata !634, metadata !382, metadata !194}
!644 = metadata !{metadata !645, metadata !646, metadata !137, metadata !647, metadata !648, metadata !649}
!645 = metadata !{i32 786480, null, metadata !"_AP_W", metadata !136, i64 26, null, i32 0, i32 0} ; [ DW_TAG_template_value_parameter ]
!646 = metadata !{i32 786480, null, metadata !"_AP_I", metadata !136, i64 26, null, i32 0, i32 0} ; [ DW_TAG_template_value_parameter ]
!647 = metadata !{i32 786480, null, metadata !"_AP_Q", metadata !159, i64 5, null, i32 0, i32 0} ; [ DW_TAG_template_value_parameter ]
!648 = metadata !{i32 786480, null, metadata !"_AP_O", metadata !170, i64 3, null, i32 0, i32 0} ; [ DW_TAG_template_value_parameter ]
!649 = metadata !{i32 786480, null, metadata !"_AP_N", metadata !136, i64 0, null, i32 0, i32 0} ; [ DW_TAG_template_value_parameter ]
!650 = metadata !{i32 786478, i32 0, metadata !114, metadata !"operator<<", metadata !"operator<<", metadata !"_ZNK13ap_fixed_baseILi26ELi26ELb1EL9ap_q_mode2EL9ap_o_mode3ELi0EElsEi", metadata !115, i32 1502, metadata !651, i1 false, i1 false, i32 0, i32 0, null, i32 256, i1 false, null, null, i32 0, metadata !127, i32 1502} ; [ DW_TAG_subprogram ]
!651 = metadata !{i32 786453, i32 0, metadata !"", i32 0, i32 0, i64 0, i64 0, i64 0, i32 0, null, metadata !652, i32 0, i32 0} ; [ DW_TAG_subroutine_type ]
!652 = metadata !{metadata !114, metadata !243, metadata !136}
!653 = metadata !{i32 786478, i32 0, metadata !114, metadata !"operator<<", metadata !"operator<<", metadata !"_ZNK13ap_fixed_baseILi26ELi26ELb1EL9ap_q_mode2EL9ap_o_mode3ELi0EElsEj", metadata !115, i32 1561, metadata !654, i1 false, i1 false, i32 0, i32 0, null, i32 256, i1 false, null, null, i32 0, metadata !127, i32 1561} ; [ DW_TAG_subprogram ]
!654 = metadata !{i32 786453, i32 0, metadata !"", i32 0, i32 0, i64 0, i64 0, i64 0, i32 0, null, metadata !655, i32 0, i32 0} ; [ DW_TAG_subroutine_type ]
!655 = metadata !{metadata !114, metadata !243, metadata !213}
!656 = metadata !{i32 786478, i32 0, metadata !114, metadata !"operator>>", metadata !"operator>>", metadata !"_ZNK13ap_fixed_baseILi26ELi26ELb1EL9ap_q_mode2EL9ap_o_mode3ELi0EErsEi", metadata !115, i32 1605, metadata !651, i1 false, i1 false, i32 0, i32 0, null, i32 256, i1 false, null, null, i32 0, metadata !127, i32 1605} ; [ DW_TAG_subprogram ]
!657 = metadata !{i32 786478, i32 0, metadata !114, metadata !"operator>>", metadata !"operator>>", metadata !"_ZNK13ap_fixed_baseILi26ELi26ELb1EL9ap_q_mode2EL9ap_o_mode3ELi0EErsEj", metadata !115, i32 1663, metadata !654, i1 false, i1 false, i32 0, i32 0, null, i32 256, i1 false, null, null, i32 0, metadata !127, i32 1663} ; [ DW_TAG_subprogram ]
!658 = metadata !{i32 786478, i32 0, metadata !114, metadata !"operator<<=", metadata !"operator<<=", metadata !"_ZN13ap_fixed_baseILi26ELi26ELb1EL9ap_q_mode2EL9ap_o_mode3ELi0EElSEi", metadata !115, i32 1715, metadata !659, i1 false, i1 false, i32 0, i32 0, null, i32 256, i1 false, null, null, i32 0, metadata !127, i32 1715} ; [ DW_TAG_subprogram ]
!659 = metadata !{i32 786453, i32 0, metadata !"", i32 0, i32 0, i64 0, i64 0, i64 0, i32 0, null, metadata !660, i32 0, i32 0} ; [ DW_TAG_subroutine_type ]
!660 = metadata !{metadata !275, metadata !142, metadata !136}
!661 = metadata !{i32 786478, i32 0, metadata !114, metadata !"operator<<=", metadata !"operator<<=", metadata !"_ZN13ap_fixed_baseILi26ELi26ELb1EL9ap_q_mode2EL9ap_o_mode3ELi0EElSEj", metadata !115, i32 1778, metadata !662, i1 false, i1 false, i32 0, i32 0, null, i32 256, i1 false, null, null, i32 0, metadata !127, i32 1778} ; [ DW_TAG_subprogram ]
!662 = metadata !{i32 786453, i32 0, metadata !"", i32 0, i32 0, i64 0, i64 0, i64 0, i32 0, null, metadata !663, i32 0, i32 0} ; [ DW_TAG_subroutine_type ]
!663 = metadata !{metadata !275, metadata !142, metadata !213}
!664 = metadata !{i32 786478, i32 0, metadata !114, metadata !"operator>>=", metadata !"operator>>=", metadata !"_ZN13ap_fixed_baseILi26ELi26ELb1EL9ap_q_mode2EL9ap_o_mode3ELi0EErSEi", metadata !115, i32 1825, metadata !659, i1 false, i1 false, i32 0, i32 0, null, i32 256, i1 false, null, null, i32 0, metadata !127, i32 1825} ; [ DW_TAG_subprogram ]
!665 = metadata !{i32 786478, i32 0, metadata !114, metadata !"operator>>=", metadata !"operator>>=", metadata !"_ZN13ap_fixed_baseILi26ELi26ELb1EL9ap_q_mode2EL9ap_o_mode3ELi0EErSEj", metadata !115, i32 1887, metadata !662, i1 false, i1 false, i32 0, i32 0, null, i32 256, i1 false, null, null, i32 0, metadata !127, i32 1887} ; [ DW_TAG_subprogram ]
!666 = metadata !{i32 786478, i32 0, metadata !114, metadata !"operator><26, 26, true, 2, 3, 0>", metadata !"operator><26, 26, true, 2, 3, 0>", metadata !"_ZNK13ap_fixed_baseILi26ELi26ELb1EL9ap_q_mode2EL9ap_o_mode3ELi0EEgtILi26ELi26ELb1ELS0_2ELS1_3ELi0EEEbRKS_IXT_EXT0_EXT1_EXT2_EXT3_EXT4_EE", metadata !115, i32 1955, metadata !667, i1 false, i1 false, i32 0, i32 0, null, i32 256, i1 false, null, metadata !154, i32 0, metadata !127, i32 1955} ; [ DW_TAG_subprogram ]
!667 = metadata !{i32 786453, i32 0, metadata !"", i32 0, i32 0, i64 0, i64 0, i64 0, i32 0, null, metadata !668, i32 0, i32 0} ; [ DW_TAG_subroutine_type ]
!668 = metadata !{metadata !138, metadata !243, metadata !152}
!669 = metadata !{i32 786478, i32 0, metadata !114, metadata !"operator==", metadata !"operator==", metadata !"_ZNK13ap_fixed_baseILi26ELi26ELb1EL9ap_q_mode2EL9ap_o_mode3ELi0EEeqEd", metadata !115, i32 1965, metadata !670, i1 false, i1 false, i32 0, i32 0, null, i32 256, i1 false, null, null, i32 0, metadata !127, i32 1965} ; [ DW_TAG_subprogram ]
!670 = metadata !{i32 786453, i32 0, metadata !"", i32 0, i32 0, i64 0, i64 0, i64 0, i32 0, null, metadata !671, i32 0, i32 0} ; [ DW_TAG_subroutine_type ]
!671 = metadata !{metadata !138, metadata !243, metadata !244}
!672 = metadata !{i32 786478, i32 0, metadata !114, metadata !"operator!=", metadata !"operator!=", metadata !"_ZNK13ap_fixed_baseILi26ELi26ELb1EL9ap_q_mode2EL9ap_o_mode3ELi0EEneEd", metadata !115, i32 1966, metadata !670, i1 false, i1 false, i32 0, i32 0, null, i32 256, i1 false, null, null, i32 0, metadata !127, i32 1966} ; [ DW_TAG_subprogram ]
!673 = metadata !{i32 786478, i32 0, metadata !114, metadata !"operator>", metadata !"operator>", metadata !"_ZNK13ap_fixed_baseILi26ELi26ELb1EL9ap_q_mode2EL9ap_o_mode3ELi0EEgtEd", metadata !115, i32 1967, metadata !670, i1 false, i1 false, i32 0, i32 0, null, i32 256, i1 false, null, null, i32 0, metadata !127, i32 1967} ; [ DW_TAG_subprogram ]
!674 = metadata !{i32 786478, i32 0, metadata !114, metadata !"operator>=", metadata !"operator>=", metadata !"_ZNK13ap_fixed_baseILi26ELi26ELb1EL9ap_q_mode2EL9ap_o_mode3ELi0EEgeEd", metadata !115, i32 1968, metadata !670, i1 false, i1 false, i32 0, i32 0, null, i32 256, i1 false, null, null, i32 0, metadata !127, i32 1968} ; [ DW_TAG_subprogram ]
!675 = metadata !{i32 786478, i32 0, metadata !114, metadata !"operator<", metadata !"operator<", metadata !"_ZNK13ap_fixed_baseILi26ELi26ELb1EL9ap_q_mode2EL9ap_o_mode3ELi0EEltEd", metadata !115, i32 1969, metadata !670, i1 false, i1 false, i32 0, i32 0, null, i32 256, i1 false, null, null, i32 0, metadata !127, i32 1969} ; [ DW_TAG_subprogram ]
!676 = metadata !{i32 786478, i32 0, metadata !114, metadata !"operator<=", metadata !"operator<=", metadata !"_ZNK13ap_fixed_baseILi26ELi26ELb1EL9ap_q_mode2EL9ap_o_mode3ELi0EEleEd", metadata !115, i32 1970, metadata !670, i1 false, i1 false, i32 0, i32 0, null, i32 256, i1 false, null, null, i32 0, metadata !127, i32 1970} ; [ DW_TAG_subprogram ]
!677 = metadata !{i32 786478, i32 0, metadata !114, metadata !"operator[]", metadata !"operator[]", metadata !"_ZN13ap_fixed_baseILi26ELi26ELb1EL9ap_q_mode2EL9ap_o_mode3ELi0EEixEj", metadata !115, i32 1973, metadata !678, i1 false, i1 false, i32 0, i32 0, null, i32 256, i1 false, null, null, i32 0, metadata !127, i32 1973} ; [ DW_TAG_subprogram ]
!678 = metadata !{i32 786453, i32 0, metadata !"", i32 0, i32 0, i64 0, i64 0, i64 0, i32 0, null, metadata !679, i32 0, i32 0} ; [ DW_TAG_subroutine_type ]
!679 = metadata !{metadata !680, metadata !142, metadata !213}
!680 = metadata !{i32 786434, null, metadata !"af_bit_ref<26, 26, true, 2, 3, 0>", metadata !115, i32 93, i32 0, i32 0, i32 0, i32 4, null, null, i32 0} ; [ DW_TAG_class_type ]
!681 = metadata !{i32 786478, i32 0, metadata !114, metadata !"operator[]", metadata !"operator[]", metadata !"_ZNK13ap_fixed_baseILi26ELi26ELb1EL9ap_q_mode2EL9ap_o_mode3ELi0EEixEj", metadata !115, i32 1985, metadata !682, i1 false, i1 false, i32 0, i32 0, null, i32 256, i1 false, null, null, i32 0, metadata !127, i32 1985} ; [ DW_TAG_subprogram ]
!682 = metadata !{i32 786453, i32 0, metadata !"", i32 0, i32 0, i64 0, i64 0, i64 0, i32 0, null, metadata !683, i32 0, i32 0} ; [ DW_TAG_subroutine_type ]
!683 = metadata !{metadata !138, metadata !243, metadata !213}
!684 = metadata !{i32 786478, i32 0, metadata !114, metadata !"bit", metadata !"bit", metadata !"_ZN13ap_fixed_baseILi26ELi26ELb1EL9ap_q_mode2EL9ap_o_mode3ELi0EE3bitEj", metadata !115, i32 1990, metadata !678, i1 false, i1 false, i32 0, i32 0, null, i32 256, i1 false, null, null, i32 0, metadata !127, i32 1990} ; [ DW_TAG_subprogram ]
!685 = metadata !{i32 786478, i32 0, metadata !114, metadata !"bit", metadata !"bit", metadata !"_ZNK13ap_fixed_baseILi26ELi26ELb1EL9ap_q_mode2EL9ap_o_mode3ELi0EE3bitEj", metadata !115, i32 2003, metadata !682, i1 false, i1 false, i32 0, i32 0, null, i32 256, i1 false, null, null, i32 0, metadata !127, i32 2003} ; [ DW_TAG_subprogram ]
!686 = metadata !{i32 786478, i32 0, metadata !114, metadata !"get_bit", metadata !"get_bit", metadata !"_ZNK13ap_fixed_baseILi26ELi26ELb1EL9ap_q_mode2EL9ap_o_mode3ELi0EE7get_bitEi", metadata !115, i32 2015, metadata !687, i1 false, i1 false, i32 0, i32 0, null, i32 256, i1 false, null, null, i32 0, metadata !127, i32 2015} ; [ DW_TAG_subprogram ]
!687 = metadata !{i32 786453, i32 0, metadata !"", i32 0, i32 0, i64 0, i64 0, i64 0, i32 0, null, metadata !688, i32 0, i32 0} ; [ DW_TAG_subroutine_type ]
!688 = metadata !{metadata !138, metadata !243, metadata !136}
!689 = metadata !{i32 786478, i32 0, metadata !114, metadata !"get_bit", metadata !"get_bit", metadata !"_ZN13ap_fixed_baseILi26ELi26ELb1EL9ap_q_mode2EL9ap_o_mode3ELi0EE7get_bitEi", metadata !115, i32 2021, metadata !690, i1 false, i1 false, i32 0, i32 0, null, i32 256, i1 false, null, null, i32 0, metadata !127, i32 2021} ; [ DW_TAG_subprogram ]
!690 = metadata !{i32 786453, i32 0, metadata !"", i32 0, i32 0, i64 0, i64 0, i64 0, i32 0, null, metadata !691, i32 0, i32 0} ; [ DW_TAG_subroutine_type ]
!691 = metadata !{metadata !680, metadata !142, metadata !136}
!692 = metadata !{i32 786478, i32 0, metadata !114, metadata !"range", metadata !"range", metadata !"_ZN13ap_fixed_baseILi26ELi26ELb1EL9ap_q_mode2EL9ap_o_mode3ELi0EE5rangeEii", metadata !115, i32 2036, metadata !693, i1 false, i1 false, i32 0, i32 0, null, i32 256, i1 false, null, null, i32 0, metadata !127, i32 2036} ; [ DW_TAG_subprogram ]
!693 = metadata !{i32 786453, i32 0, metadata !"", i32 0, i32 0, i64 0, i64 0, i64 0, i32 0, null, metadata !694, i32 0, i32 0} ; [ DW_TAG_subroutine_type ]
!694 = metadata !{metadata !695, metadata !142, metadata !136, metadata !136}
!695 = metadata !{i32 786434, null, metadata !"af_range_ref<26, 26, true, 2, 3, 0>", metadata !115, i32 238, i32 0, i32 0, i32 0, i32 4, null, null, i32 0} ; [ DW_TAG_class_type ]
!696 = metadata !{i32 786478, i32 0, metadata !114, metadata !"operator()", metadata !"operator()", metadata !"_ZN13ap_fixed_baseILi26ELi26ELb1EL9ap_q_mode2EL9ap_o_mode3ELi0EEclEii", metadata !115, i32 2042, metadata !693, i1 false, i1 false, i32 0, i32 0, null, i32 256, i1 false, null, null, i32 0, metadata !127, i32 2042} ; [ DW_TAG_subprogram ]
!697 = metadata !{i32 786478, i32 0, metadata !114, metadata !"range", metadata !"range", metadata !"_ZNK13ap_fixed_baseILi26ELi26ELb1EL9ap_q_mode2EL9ap_o_mode3ELi0EE5rangeEii", metadata !115, i32 2048, metadata !698, i1 false, i1 false, i32 0, i32 0, null, i32 256, i1 false, null, null, i32 0, metadata !127, i32 2048} ; [ DW_TAG_subprogram ]
!698 = metadata !{i32 786453, i32 0, metadata !"", i32 0, i32 0, i64 0, i64 0, i64 0, i32 0, null, metadata !699, i32 0, i32 0} ; [ DW_TAG_subroutine_type ]
!699 = metadata !{metadata !695, metadata !243, metadata !136, metadata !136}
!700 = metadata !{i32 786478, i32 0, metadata !114, metadata !"operator()", metadata !"operator()", metadata !"_ZNK13ap_fixed_baseILi26ELi26ELb1EL9ap_q_mode2EL9ap_o_mode3ELi0EEclEii", metadata !115, i32 2097, metadata !698, i1 false, i1 false, i32 0, i32 0, null, i32 256, i1 false, null, null, i32 0, metadata !127, i32 2097} ; [ DW_TAG_subprogram ]
!701 = metadata !{i32 786478, i32 0, metadata !114, metadata !"range", metadata !"range", metadata !"_ZN13ap_fixed_baseILi26ELi26ELb1EL9ap_q_mode2EL9ap_o_mode3ELi0EE5rangeEv", metadata !115, i32 2102, metadata !702, i1 false, i1 false, i32 0, i32 0, null, i32 256, i1 false, null, null, i32 0, metadata !127, i32 2102} ; [ DW_TAG_subprogram ]
!702 = metadata !{i32 786453, i32 0, metadata !"", i32 0, i32 0, i64 0, i64 0, i64 0, i32 0, null, metadata !703, i32 0, i32 0} ; [ DW_TAG_subroutine_type ]
!703 = metadata !{metadata !695, metadata !142}
!704 = metadata !{i32 786478, i32 0, metadata !114, metadata !"range", metadata !"range", metadata !"_ZNK13ap_fixed_baseILi26ELi26ELb1EL9ap_q_mode2EL9ap_o_mode3ELi0EE5rangeEv", metadata !115, i32 2107, metadata !705, i1 false, i1 false, i32 0, i32 0, null, i32 256, i1 false, null, null, i32 0, metadata !127, i32 2107} ; [ DW_TAG_subprogram ]
!705 = metadata !{i32 786453, i32 0, metadata !"", i32 0, i32 0, i64 0, i64 0, i64 0, i32 0, null, metadata !706, i32 0, i32 0} ; [ DW_TAG_subroutine_type ]
!706 = metadata !{metadata !695, metadata !243}
!707 = metadata !{i32 786478, i32 0, metadata !114, metadata !"is_zero", metadata !"is_zero", metadata !"_ZNK13ap_fixed_baseILi26ELi26ELb1EL9ap_q_mode2EL9ap_o_mode3ELi0EE7is_zeroEv", metadata !115, i32 2111, metadata !321, i1 false, i1 false, i32 0, i32 0, null, i32 256, i1 false, null, null, i32 0, metadata !127, i32 2111} ; [ DW_TAG_subprogram ]
!708 = metadata !{i32 786478, i32 0, metadata !114, metadata !"is_neg", metadata !"is_neg", metadata !"_ZNK13ap_fixed_baseILi26ELi26ELb1EL9ap_q_mode2EL9ap_o_mode3ELi0EE6is_negEv", metadata !115, i32 2115, metadata !321, i1 false, i1 false, i32 0, i32 0, null, i32 256, i1 false, null, null, i32 0, metadata !127, i32 2115} ; [ DW_TAG_subprogram ]
!709 = metadata !{i32 786478, i32 0, metadata !114, metadata !"wl", metadata !"wl", metadata !"_ZNK13ap_fixed_baseILi26ELi26ELb1EL9ap_q_mode2EL9ap_o_mode3ELi0EE2wlEv", metadata !115, i32 2121, metadata !297, i1 false, i1 false, i32 0, i32 0, null, i32 256, i1 false, null, null, i32 0, metadata !127, i32 2121} ; [ DW_TAG_subprogram ]
!710 = metadata !{i32 786478, i32 0, metadata !114, metadata !"iwl", metadata !"iwl", metadata !"_ZNK13ap_fixed_baseILi26ELi26ELb1EL9ap_q_mode2EL9ap_o_mode3ELi0EE3iwlEv", metadata !115, i32 2125, metadata !297, i1 false, i1 false, i32 0, i32 0, null, i32 256, i1 false, null, null, i32 0, metadata !127, i32 2125} ; [ DW_TAG_subprogram ]
!711 = metadata !{i32 786478, i32 0, metadata !114, metadata !"q_mode", metadata !"q_mode", metadata !"_ZNK13ap_fixed_baseILi26ELi26ELb1EL9ap_q_mode2EL9ap_o_mode3ELi0EE6q_modeEv", metadata !115, i32 2129, metadata !712, i1 false, i1 false, i32 0, i32 0, null, i32 256, i1 false, null, null, i32 0, metadata !127, i32 2129} ; [ DW_TAG_subprogram ]
!712 = metadata !{i32 786453, i32 0, metadata !"", i32 0, i32 0, i64 0, i64 0, i64 0, i32 0, null, metadata !713, i32 0, i32 0} ; [ DW_TAG_subroutine_type ]
!713 = metadata !{metadata !159, metadata !243}
!714 = metadata !{i32 786478, i32 0, metadata !114, metadata !"o_mode", metadata !"o_mode", metadata !"_ZNK13ap_fixed_baseILi26ELi26ELb1EL9ap_q_mode2EL9ap_o_mode3ELi0EE6o_modeEv", metadata !115, i32 2133, metadata !715, i1 false, i1 false, i32 0, i32 0, null, i32 256, i1 false, null, null, i32 0, metadata !127, i32 2133} ; [ DW_TAG_subprogram ]
!715 = metadata !{i32 786453, i32 0, metadata !"", i32 0, i32 0, i64 0, i64 0, i64 0, i32 0, null, metadata !716, i32 0, i32 0} ; [ DW_TAG_subroutine_type ]
!716 = metadata !{metadata !170, metadata !243}
!717 = metadata !{i32 786478, i32 0, metadata !114, metadata !"n_bits", metadata !"n_bits", metadata !"_ZNK13ap_fixed_baseILi26ELi26ELb1EL9ap_q_mode2EL9ap_o_mode3ELi0EE6n_bitsEv", metadata !115, i32 2137, metadata !297, i1 false, i1 false, i32 0, i32 0, null, i32 256, i1 false, null, null, i32 0, metadata !127, i32 2137} ; [ DW_TAG_subprogram ]
!718 = metadata !{i32 786478, i32 0, metadata !114, metadata !"to_string", metadata !"to_string", metadata !"_ZN13ap_fixed_baseILi26ELi26ELb1EL9ap_q_mode2EL9ap_o_mode3ELi0EE9to_stringE8BaseMode", metadata !115, i32 2141, metadata !719, i1 false, i1 false, i32 0, i32 0, null, i32 256, i1 false, null, null, i32 0, metadata !127, i32 2141} ; [ DW_TAG_subprogram ]
!719 = metadata !{i32 786453, i32 0, metadata !"", i32 0, i32 0, i64 0, i64 0, i64 0, i32 0, null, metadata !720, i32 0, i32 0} ; [ DW_TAG_subroutine_type ]
!720 = metadata !{metadata !634, metadata !142, metadata !635}
!721 = metadata !{i32 786478, i32 0, metadata !114, metadata !"to_string", metadata !"to_string", metadata !"_ZN13ap_fixed_baseILi26ELi26ELb1EL9ap_q_mode2EL9ap_o_mode3ELi0EE9to_stringEa", metadata !115, i32 2145, metadata !722, i1 false, i1 false, i32 0, i32 0, null, i32 256, i1 false, null, null, i32 0, metadata !127, i32 2145} ; [ DW_TAG_subprogram ]
!722 = metadata !{i32 786453, i32 0, metadata !"", i32 0, i32 0, i64 0, i64 0, i64 0, i32 0, null, metadata !723, i32 0, i32 0} ; [ DW_TAG_subroutine_type ]
!723 = metadata !{metadata !634, metadata !142, metadata !194}
!724 = metadata !{i32 786478, i32 0, metadata !114, metadata !"ap_fixed_base", metadata !"ap_fixed_base", metadata !"", metadata !115, i32 512, metadata !150, i1 false, i1 false, i32 0, i32 0, null, i32 320, i1 false, null, null, i32 0, metadata !127, i32 512} ; [ DW_TAG_subprogram ]
!725 = metadata !{metadata !645, metadata !646, metadata !137, metadata !726, metadata !648, metadata !649}
!726 = metadata !{i32 786480, null, metadata !"_AP_Q", metadata !159, i64 2, null, i32 0, i32 0} ; [ DW_TAG_template_value_parameter ]
!727 = metadata !{i32 786478, i32 0, metadata !110, metadata !"ap_fixed", metadata !"ap_fixed", metadata !"", metadata !111, i32 295, metadata !728, i1 false, i1 false, i32 0, i32 0, null, i32 256, i1 false, null, null, i32 0, metadata !127, i32 295} ; [ DW_TAG_subprogram ]
!728 = metadata !{i32 786453, i32 0, metadata !"", i32 0, i32 0, i64 0, i64 0, i64 0, i32 0, null, metadata !729, i32 0, i32 0} ; [ DW_TAG_subroutine_type ]
!729 = metadata !{null, metadata !730}
!730 = metadata !{i32 786447, i32 0, metadata !"", i32 0, i32 0, i64 64, i64 64, i64 0, i32 64, metadata !110} ; [ DW_TAG_pointer_type ]
!731 = metadata !{i32 786478, i32 0, metadata !110, metadata !"ap_fixed<26, 26, 2, 3, 0>", metadata !"ap_fixed<26, 26, 2, 3, 0>", metadata !"", metadata !111, i32 299, metadata !732, i1 false, i1 false, i32 0, i32 0, null, i32 256, i1 false, null, metadata !736, i32 0, metadata !127, i32 299} ; [ DW_TAG_subprogram ]
!732 = metadata !{i32 786453, i32 0, metadata !"", i32 0, i32 0, i64 0, i64 0, i64 0, i32 0, null, metadata !733, i32 0, i32 0} ; [ DW_TAG_subroutine_type ]
!733 = metadata !{null, metadata !730, metadata !734}
!734 = metadata !{i32 786448, null, null, null, i32 0, i64 0, i64 0, i64 0, i32 0, metadata !735} ; [ DW_TAG_reference_type ]
!735 = metadata !{i32 786470, null, metadata !"", null, i32 0, i64 0, i64 0, i64 0, i32 0, metadata !110} ; [ DW_TAG_const_type ]
!736 = metadata !{metadata !155, metadata !156, metadata !158, metadata !169, metadata !177}
!737 = metadata !{i32 786478, i32 0, metadata !110, metadata !"ap_fixed<26, 26, 2, 3, 0>", metadata !"ap_fixed<26, 26, 2, 3, 0>", metadata !"", metadata !111, i32 318, metadata !738, i1 false, i1 false, i32 0, i32 0, null, i32 256, i1 false, null, metadata !736, i32 0, metadata !127, i32 318} ; [ DW_TAG_subprogram ]
!738 = metadata !{i32 786453, i32 0, metadata !"", i32 0, i32 0, i64 0, i64 0, i64 0, i32 0, null, metadata !739, i32 0, i32 0} ; [ DW_TAG_subroutine_type ]
!739 = metadata !{null, metadata !730, metadata !740}
!740 = metadata !{i32 786448, null, null, null, i32 0, i64 0, i64 0, i64 0, i32 0, metadata !741} ; [ DW_TAG_reference_type ]
!741 = metadata !{i32 786470, null, metadata !"", null, i32 0, i64 0, i64 0, i64 0, i32 0, metadata !742} ; [ DW_TAG_const_type ]
!742 = metadata !{i32 786485, null, metadata !"", null, i32 0, i64 0, i64 0, i64 0, i32 0, metadata !110} ; [ DW_TAG_volatile_type ]
!743 = metadata !{i32 786478, i32 0, metadata !110, metadata !"ap_fixed<58, 58, true, 5, 3, 0>", metadata !"ap_fixed<58, 58, true, 5, 3, 0>", metadata !"", metadata !111, i32 337, metadata !744, i1 false, i1 false, i32 0, i32 0, null, i32 256, i1 false, null, metadata !774, i32 0, metadata !127, i32 337} ; [ DW_TAG_subprogram ]
!744 = metadata !{i32 786453, i32 0, metadata !"", i32 0, i32 0, i64 0, i64 0, i64 0, i32 0, null, metadata !745, i32 0, i32 0} ; [ DW_TAG_subroutine_type ]
!745 = metadata !{null, metadata !730, metadata !746}
!746 = metadata !{i32 786448, null, null, null, i32 0, i64 0, i64 0, i64 0, i32 0, metadata !747} ; [ DW_TAG_reference_type ]
!747 = metadata !{i32 786470, null, metadata !"", null, i32 0, i64 0, i64 0, i64 0, i32 0, metadata !748} ; [ DW_TAG_const_type ]
!748 = metadata !{i32 786434, null, metadata !"ap_fixed_base<58, 58, true, 5, 3, 0>", metadata !115, i32 512, i64 64, i64 32, i32 0, i32 0, null, metadata !749, i32 0, null, metadata !1267} ; [ DW_TAG_class_type ]
!749 = metadata !{metadata !750, metadata !761, metadata !765, metadata !768, metadata !771, metadata !778, metadata !784, metadata !787, metadata !790, metadata !793, metadata !796, metadata !799, metadata !802, metadata !805, metadata !808, metadata !811, metadata !814, metadata !817, metadata !820, metadata !823, metadata !826, metadata !830, metadata !833, metadata !836, metadata !839, metadata !842, metadata !845, metadata !848, metadata !851, metadata !854, metadata !858, metadata !861, metadata !865, metadata !868, metadata !871, metadata !874, metadata !1115, metadata !1118, metadata !1121, metadata !1124, metadata !1127, metadata !1130, metadata !1133, metadata !1136, metadata !1137, metadata !1138, metadata !1139, metadata !1142, metadata !1145, metadata !1148, metadata !1151, metadata !1154, metadata !1157, metadata !1158, metadata !1159, metadata !1162, metadata !1165, metadata !1168, metadata !1171, metadata !1172, metadata !1175, metadata !1178, metadata !1179, metadata !1182, metadata !1183, metadata !1186, metadata !1190, metadata !1191, metadata !1192, metadata !1195, metadata !1198, metadata !1201, metadata !1202, metadata !1203, metadata !1206, metadata !1209, metadata !1210, metadata !1211, metadata !1214, metadata !1215, metadata !1216, metadata !1217, metadata !1218, metadata !1219, metadata !1223, metadata !1226, metadata !1227, metadata !1228, metadata !1231, metadata !1234, metadata !1238, metadata !1239, metadata !1242, metadata !1243, metadata !1246, metadata !1249, metadata !1250, metadata !1251, metadata !1252, metadata !1253, metadata !1256, metadata !1259, metadata !1260, metadata !1263, metadata !1266}
!750 = metadata !{i32 786460, metadata !748, null, metadata !115, i32 0, i64 0, i64 0, i64 0, i32 0, metadata !751} ; [ DW_TAG_inheritance ]
!751 = metadata !{i32 786434, null, metadata !"ssdm_int<58 + 1024 * 0, true>", metadata !119, i32 60, i64 64, i64 32, i32 0, i32 0, null, metadata !752, i32 0, null, metadata !759} ; [ DW_TAG_class_type ]
!752 = metadata !{metadata !753, metadata !755}
!753 = metadata !{i32 786445, metadata !751, metadata !"V", metadata !119, i32 60, i64 58, i64 32, i64 0, i32 0, metadata !754} ; [ DW_TAG_member ]
!754 = metadata !{i32 786468, null, metadata !"int58", null, i32 0, i64 58, i64 32, i64 0, i32 0, i32 5} ; [ DW_TAG_base_type ]
!755 = metadata !{i32 786478, i32 0, metadata !751, metadata !"ssdm_int", metadata !"ssdm_int", metadata !"", metadata !119, i32 60, metadata !756, i1 false, i1 false, i32 0, i32 0, null, i32 256, i1 false, null, null, i32 0, metadata !127, i32 60} ; [ DW_TAG_subprogram ]
!756 = metadata !{i32 786453, i32 0, metadata !"", i32 0, i32 0, i64 0, i64 0, i64 0, i32 0, null, metadata !757, i32 0, i32 0} ; [ DW_TAG_subroutine_type ]
!757 = metadata !{null, metadata !758}
!758 = metadata !{i32 786447, i32 0, metadata !"", i32 0, i32 0, i64 64, i64 64, i64 0, i32 64, metadata !751} ; [ DW_TAG_pointer_type ]
!759 = metadata !{metadata !760, metadata !137}
!760 = metadata !{i32 786480, null, metadata !"_AP_N", metadata !136, i64 58, null, i32 0, i32 0} ; [ DW_TAG_template_value_parameter ]
!761 = metadata !{i32 786478, i32 0, metadata !748, metadata !"overflow_adjust", metadata !"overflow_adjust", metadata !"_ZN13ap_fixed_baseILi58ELi58ELb1EL9ap_q_mode5EL9ap_o_mode3ELi0EE15overflow_adjustEbbbb", metadata !115, i32 522, metadata !762, i1 false, i1 false, i32 0, i32 0, null, i32 256, i1 false, null, null, i32 0, metadata !127, i32 522} ; [ DW_TAG_subprogram ]
!762 = metadata !{i32 786453, i32 0, metadata !"", i32 0, i32 0, i64 0, i64 0, i64 0, i32 0, null, metadata !763, i32 0, i32 0} ; [ DW_TAG_subroutine_type ]
!763 = metadata !{null, metadata !764, metadata !138, metadata !138, metadata !138, metadata !138}
!764 = metadata !{i32 786447, i32 0, metadata !"", i32 0, i32 0, i64 64, i64 64, i64 0, i32 64, metadata !748} ; [ DW_TAG_pointer_type ]
!765 = metadata !{i32 786478, i32 0, metadata !748, metadata !"quantization_adjust", metadata !"quantization_adjust", metadata !"_ZN13ap_fixed_baseILi58ELi58ELb1EL9ap_q_mode5EL9ap_o_mode3ELi0EE19quantization_adjustEbbb", metadata !115, i32 595, metadata !766, i1 false, i1 false, i32 0, i32 0, null, i32 256, i1 false, null, null, i32 0, metadata !127, i32 595} ; [ DW_TAG_subprogram ]
!766 = metadata !{i32 786453, i32 0, metadata !"", i32 0, i32 0, i64 0, i64 0, i64 0, i32 0, null, metadata !767, i32 0, i32 0} ; [ DW_TAG_subroutine_type ]
!767 = metadata !{metadata !138, metadata !764, metadata !138, metadata !138, metadata !138}
!768 = metadata !{i32 786478, i32 0, metadata !748, metadata !"ap_fixed_base", metadata !"ap_fixed_base", metadata !"", metadata !115, i32 653, metadata !769, i1 false, i1 false, i32 0, i32 0, null, i32 256, i1 false, null, null, i32 0, metadata !127, i32 653} ; [ DW_TAG_subprogram ]
!769 = metadata !{i32 786453, i32 0, metadata !"", i32 0, i32 0, i64 0, i64 0, i64 0, i32 0, null, metadata !770, i32 0, i32 0} ; [ DW_TAG_subroutine_type ]
!770 = metadata !{null, metadata !764}
!771 = metadata !{i32 786478, i32 0, metadata !748, metadata !"ap_fixed_base<58, 58, true, 5, 3, 0>", metadata !"ap_fixed_base<58, 58, true, 5, 3, 0>", metadata !"", metadata !115, i32 663, metadata !772, i1 false, i1 false, i32 0, i32 0, null, i32 256, i1 false, null, metadata !774, i32 0, metadata !127, i32 663} ; [ DW_TAG_subprogram ]
!772 = metadata !{i32 786453, i32 0, metadata !"", i32 0, i32 0, i64 0, i64 0, i64 0, i32 0, null, metadata !773, i32 0, i32 0} ; [ DW_TAG_subroutine_type ]
!773 = metadata !{null, metadata !764, metadata !746}
!774 = metadata !{metadata !775, metadata !776, metadata !157, metadata !777, metadata !169, metadata !177}
!775 = metadata !{i32 786480, null, metadata !"_AP_W2", metadata !136, i64 58, null, i32 0, i32 0} ; [ DW_TAG_template_value_parameter ]
!776 = metadata !{i32 786480, null, metadata !"_AP_I2", metadata !136, i64 58, null, i32 0, i32 0} ; [ DW_TAG_template_value_parameter ]
!777 = metadata !{i32 786480, null, metadata !"_AP_Q2", metadata !159, i64 5, null, i32 0, i32 0} ; [ DW_TAG_template_value_parameter ]
!778 = metadata !{i32 786478, i32 0, metadata !748, metadata !"ap_fixed_base<58, 58, true, 5, 3, 0>", metadata !"ap_fixed_base<58, 58, true, 5, 3, 0>", metadata !"", metadata !115, i32 777, metadata !779, i1 false, i1 false, i32 0, i32 0, null, i32 256, i1 false, null, metadata !774, i32 0, metadata !127, i32 777} ; [ DW_TAG_subprogram ]
!779 = metadata !{i32 786453, i32 0, metadata !"", i32 0, i32 0, i64 0, i64 0, i64 0, i32 0, null, metadata !780, i32 0, i32 0} ; [ DW_TAG_subroutine_type ]
!780 = metadata !{null, metadata !764, metadata !781}
!781 = metadata !{i32 786448, null, null, null, i32 0, i64 0, i64 0, i64 0, i32 0, metadata !782} ; [ DW_TAG_reference_type ]
!782 = metadata !{i32 786470, null, metadata !"", null, i32 0, i64 0, i64 0, i64 0, i32 0, metadata !783} ; [ DW_TAG_const_type ]
!783 = metadata !{i32 786485, null, metadata !"", null, i32 0, i64 0, i64 0, i64 0, i32 0, metadata !748} ; [ DW_TAG_volatile_type ]
!784 = metadata !{i32 786478, i32 0, metadata !748, metadata !"ap_fixed_base", metadata !"ap_fixed_base", metadata !"", metadata !115, i32 789, metadata !785, i1 false, i1 false, i32 0, i32 0, null, i32 256, i1 false, null, null, i32 0, metadata !127, i32 789} ; [ DW_TAG_subprogram ]
!785 = metadata !{i32 786453, i32 0, metadata !"", i32 0, i32 0, i64 0, i64 0, i64 0, i32 0, null, metadata !786, i32 0, i32 0} ; [ DW_TAG_subroutine_type ]
!786 = metadata !{null, metadata !764, metadata !138}
!787 = metadata !{i32 786478, i32 0, metadata !748, metadata !"ap_fixed_base", metadata !"ap_fixed_base", metadata !"", metadata !115, i32 790, metadata !788, i1 false, i1 false, i32 0, i32 0, null, i32 256, i1 false, null, null, i32 0, metadata !127, i32 790} ; [ DW_TAG_subprogram ]
!788 = metadata !{i32 786453, i32 0, metadata !"", i32 0, i32 0, i64 0, i64 0, i64 0, i32 0, null, metadata !789, i32 0, i32 0} ; [ DW_TAG_subroutine_type ]
!789 = metadata !{null, metadata !764, metadata !190}
!790 = metadata !{i32 786478, i32 0, metadata !748, metadata !"ap_fixed_base", metadata !"ap_fixed_base", metadata !"", metadata !115, i32 791, metadata !791, i1 false, i1 false, i32 0, i32 0, null, i32 256, i1 false, null, null, i32 0, metadata !127, i32 791} ; [ DW_TAG_subprogram ]
!791 = metadata !{i32 786453, i32 0, metadata !"", i32 0, i32 0, i64 0, i64 0, i64 0, i32 0, null, metadata !792, i32 0, i32 0} ; [ DW_TAG_subroutine_type ]
!792 = metadata !{null, metadata !764, metadata !194}
!793 = metadata !{i32 786478, i32 0, metadata !748, metadata !"ap_fixed_base", metadata !"ap_fixed_base", metadata !"", metadata !115, i32 792, metadata !794, i1 false, i1 false, i32 0, i32 0, null, i32 256, i1 false, null, null, i32 0, metadata !127, i32 792} ; [ DW_TAG_subprogram ]
!794 = metadata !{i32 786453, i32 0, metadata !"", i32 0, i32 0, i64 0, i64 0, i64 0, i32 0, null, metadata !795, i32 0, i32 0} ; [ DW_TAG_subroutine_type ]
!795 = metadata !{null, metadata !764, metadata !198}
!796 = metadata !{i32 786478, i32 0, metadata !748, metadata !"ap_fixed_base", metadata !"ap_fixed_base", metadata !"", metadata !115, i32 793, metadata !797, i1 false, i1 false, i32 0, i32 0, null, i32 256, i1 false, null, null, i32 0, metadata !127, i32 793} ; [ DW_TAG_subprogram ]
!797 = metadata !{i32 786453, i32 0, metadata !"", i32 0, i32 0, i64 0, i64 0, i64 0, i32 0, null, metadata !798, i32 0, i32 0} ; [ DW_TAG_subroutine_type ]
!798 = metadata !{null, metadata !764, metadata !202}
!799 = metadata !{i32 786478, i32 0, metadata !748, metadata !"ap_fixed_base", metadata !"ap_fixed_base", metadata !"", metadata !115, i32 794, metadata !800, i1 false, i1 false, i32 0, i32 0, null, i32 256, i1 false, null, null, i32 0, metadata !127, i32 794} ; [ DW_TAG_subprogram ]
!800 = metadata !{i32 786453, i32 0, metadata !"", i32 0, i32 0, i64 0, i64 0, i64 0, i32 0, null, metadata !801, i32 0, i32 0} ; [ DW_TAG_subroutine_type ]
!801 = metadata !{null, metadata !764, metadata !206}
!802 = metadata !{i32 786478, i32 0, metadata !748, metadata !"ap_fixed_base", metadata !"ap_fixed_base", metadata !"", metadata !115, i32 795, metadata !803, i1 false, i1 false, i32 0, i32 0, null, i32 256, i1 false, null, null, i32 0, metadata !127, i32 795} ; [ DW_TAG_subprogram ]
!803 = metadata !{i32 786453, i32 0, metadata !"", i32 0, i32 0, i64 0, i64 0, i64 0, i32 0, null, metadata !804, i32 0, i32 0} ; [ DW_TAG_subroutine_type ]
!804 = metadata !{null, metadata !764, metadata !136}
!805 = metadata !{i32 786478, i32 0, metadata !748, metadata !"ap_fixed_base", metadata !"ap_fixed_base", metadata !"", metadata !115, i32 796, metadata !806, i1 false, i1 false, i32 0, i32 0, null, i32 256, i1 false, null, null, i32 0, metadata !127, i32 796} ; [ DW_TAG_subprogram ]
!806 = metadata !{i32 786453, i32 0, metadata !"", i32 0, i32 0, i64 0, i64 0, i64 0, i32 0, null, metadata !807, i32 0, i32 0} ; [ DW_TAG_subroutine_type ]
!807 = metadata !{null, metadata !764, metadata !213}
!808 = metadata !{i32 786478, i32 0, metadata !748, metadata !"ap_fixed_base", metadata !"ap_fixed_base", metadata !"", metadata !115, i32 798, metadata !809, i1 false, i1 false, i32 0, i32 0, null, i32 256, i1 false, null, null, i32 0, metadata !127, i32 798} ; [ DW_TAG_subprogram ]
!809 = metadata !{i32 786453, i32 0, metadata !"", i32 0, i32 0, i64 0, i64 0, i64 0, i32 0, null, metadata !810, i32 0, i32 0} ; [ DW_TAG_subroutine_type ]
!810 = metadata !{null, metadata !764, metadata !217}
!811 = metadata !{i32 786478, i32 0, metadata !748, metadata !"ap_fixed_base", metadata !"ap_fixed_base", metadata !"", metadata !115, i32 799, metadata !812, i1 false, i1 false, i32 0, i32 0, null, i32 256, i1 false, null, null, i32 0, metadata !127, i32 799} ; [ DW_TAG_subprogram ]
!812 = metadata !{i32 786453, i32 0, metadata !"", i32 0, i32 0, i64 0, i64 0, i64 0, i32 0, null, metadata !813, i32 0, i32 0} ; [ DW_TAG_subroutine_type ]
!813 = metadata !{null, metadata !764, metadata !221}
!814 = metadata !{i32 786478, i32 0, metadata !748, metadata !"ap_fixed_base", metadata !"ap_fixed_base", metadata !"", metadata !115, i32 804, metadata !815, i1 false, i1 false, i32 0, i32 0, null, i32 256, i1 false, null, null, i32 0, metadata !127, i32 804} ; [ DW_TAG_subprogram ]
!815 = metadata !{i32 786453, i32 0, metadata !"", i32 0, i32 0, i64 0, i64 0, i64 0, i32 0, null, metadata !816, i32 0, i32 0} ; [ DW_TAG_subroutine_type ]
!816 = metadata !{null, metadata !764, metadata !225}
!817 = metadata !{i32 786478, i32 0, metadata !748, metadata !"ap_fixed_base", metadata !"ap_fixed_base", metadata !"", metadata !115, i32 805, metadata !818, i1 false, i1 false, i32 0, i32 0, null, i32 256, i1 false, null, null, i32 0, metadata !127, i32 805} ; [ DW_TAG_subprogram ]
!818 = metadata !{i32 786453, i32 0, metadata !"", i32 0, i32 0, i64 0, i64 0, i64 0, i32 0, null, metadata !819, i32 0, i32 0} ; [ DW_TAG_subroutine_type ]
!819 = metadata !{null, metadata !764, metadata !230}
!820 = metadata !{i32 786478, i32 0, metadata !748, metadata !"ap_fixed_base", metadata !"ap_fixed_base", metadata !"", metadata !115, i32 806, metadata !821, i1 false, i1 false, i32 0, i32 0, null, i32 256, i1 false, null, null, i32 0, metadata !127, i32 806} ; [ DW_TAG_subprogram ]
!821 = metadata !{i32 786453, i32 0, metadata !"", i32 0, i32 0, i64 0, i64 0, i64 0, i32 0, null, metadata !822, i32 0, i32 0} ; [ DW_TAG_subroutine_type ]
!822 = metadata !{null, metadata !764, metadata !235}
!823 = metadata !{i32 786478, i32 0, metadata !748, metadata !"ap_fixed_base", metadata !"ap_fixed_base", metadata !"", metadata !115, i32 813, metadata !824, i1 false, i1 false, i32 0, i32 0, null, i32 256, i1 false, null, null, i32 0, metadata !127, i32 813} ; [ DW_TAG_subprogram ]
!824 = metadata !{i32 786453, i32 0, metadata !"", i32 0, i32 0, i64 0, i64 0, i64 0, i32 0, null, metadata !825, i32 0, i32 0} ; [ DW_TAG_subroutine_type ]
!825 = metadata !{null, metadata !764, metadata !235, metadata !194}
!826 = metadata !{i32 786478, i32 0, metadata !748, metadata !"doubleToRawBits", metadata !"doubleToRawBits", metadata !"_ZNK13ap_fixed_baseILi58ELi58ELb1EL9ap_q_mode5EL9ap_o_mode3ELi0EE15doubleToRawBitsEd", metadata !115, i32 849, metadata !827, i1 false, i1 false, i32 0, i32 0, null, i32 256, i1 false, null, null, i32 0, metadata !127, i32 849} ; [ DW_TAG_subprogram ]
!827 = metadata !{i32 786453, i32 0, metadata !"", i32 0, i32 0, i64 0, i64 0, i64 0, i32 0, null, metadata !828, i32 0, i32 0} ; [ DW_TAG_subroutine_type ]
!828 = metadata !{metadata !231, metadata !829, metadata !244}
!829 = metadata !{i32 786447, i32 0, metadata !"", i32 0, i32 0, i64 64, i64 64, i64 0, i32 64, metadata !747} ; [ DW_TAG_pointer_type ]
!830 = metadata !{i32 786478, i32 0, metadata !748, metadata !"floatToRawBits", metadata !"floatToRawBits", metadata !"_ZNK13ap_fixed_baseILi58ELi58ELb1EL9ap_q_mode5EL9ap_o_mode3ELi0EE14floatToRawBitsEf", metadata !115, i32 857, metadata !831, i1 false, i1 false, i32 0, i32 0, null, i32 256, i1 false, null, null, i32 0, metadata !127, i32 857} ; [ DW_TAG_subprogram ]
!831 = metadata !{i32 786453, i32 0, metadata !"", i32 0, i32 0, i64 0, i64 0, i64 0, i32 0, null, metadata !832, i32 0, i32 0} ; [ DW_TAG_subroutine_type ]
!832 = metadata !{metadata !213, metadata !829, metadata !248}
!833 = metadata !{i32 786478, i32 0, metadata !748, metadata !"halfToRawBits", metadata !"halfToRawBits", metadata !"_ZNK13ap_fixed_baseILi58ELi58ELb1EL9ap_q_mode5EL9ap_o_mode3ELi0EE13halfToRawBitsEDh", metadata !115, i32 865, metadata !834, i1 false, i1 false, i32 0, i32 0, null, i32 256, i1 false, null, null, i32 0, metadata !127, i32 865} ; [ DW_TAG_subprogram ]
!834 = metadata !{i32 786453, i32 0, metadata !"", i32 0, i32 0, i64 0, i64 0, i64 0, i32 0, null, metadata !835, i32 0, i32 0} ; [ DW_TAG_subroutine_type ]
!835 = metadata !{metadata !206, metadata !829, metadata !252}
!836 = metadata !{i32 786478, i32 0, metadata !748, metadata !"rawBitsToDouble", metadata !"rawBitsToDouble", metadata !"_ZNK13ap_fixed_baseILi58ELi58ELb1EL9ap_q_mode5EL9ap_o_mode3ELi0EE15rawBitsToDoubleEy", metadata !115, i32 874, metadata !837, i1 false, i1 false, i32 0, i32 0, null, i32 256, i1 false, null, null, i32 0, metadata !127, i32 874} ; [ DW_TAG_subprogram ]
!837 = metadata !{i32 786453, i32 0, metadata !"", i32 0, i32 0, i64 0, i64 0, i64 0, i32 0, null, metadata !838, i32 0, i32 0} ; [ DW_TAG_subroutine_type ]
!838 = metadata !{metadata !244, metadata !829, metadata !231}
!839 = metadata !{i32 786478, i32 0, metadata !748, metadata !"rawBitsToFloat", metadata !"rawBitsToFloat", metadata !"_ZNK13ap_fixed_baseILi58ELi58ELb1EL9ap_q_mode5EL9ap_o_mode3ELi0EE14rawBitsToFloatEj", metadata !115, i32 883, metadata !840, i1 false, i1 false, i32 0, i32 0, null, i32 256, i1 false, null, null, i32 0, metadata !127, i32 883} ; [ DW_TAG_subprogram ]
!840 = metadata !{i32 786453, i32 0, metadata !"", i32 0, i32 0, i64 0, i64 0, i64 0, i32 0, null, metadata !841, i32 0, i32 0} ; [ DW_TAG_subroutine_type ]
!841 = metadata !{metadata !248, metadata !829, metadata !213}
!842 = metadata !{i32 786478, i32 0, metadata !748, metadata !"rawBitsToHalf", metadata !"rawBitsToHalf", metadata !"_ZNK13ap_fixed_baseILi58ELi58ELb1EL9ap_q_mode5EL9ap_o_mode3ELi0EE13rawBitsToHalfEt", metadata !115, i32 892, metadata !843, i1 false, i1 false, i32 0, i32 0, null, i32 256, i1 false, null, null, i32 0, metadata !127, i32 892} ; [ DW_TAG_subprogram ]
!843 = metadata !{i32 786453, i32 0, metadata !"", i32 0, i32 0, i64 0, i64 0, i64 0, i32 0, null, metadata !844, i32 0, i32 0} ; [ DW_TAG_subroutine_type ]
!844 = metadata !{metadata !252, metadata !829, metadata !206}
!845 = metadata !{i32 786478, i32 0, metadata !748, metadata !"ap_fixed_base", metadata !"ap_fixed_base", metadata !"", metadata !115, i32 901, metadata !846, i1 false, i1 false, i32 0, i32 0, null, i32 256, i1 false, null, null, i32 0, metadata !127, i32 901} ; [ DW_TAG_subprogram ]
!846 = metadata !{i32 786453, i32 0, metadata !"", i32 0, i32 0, i64 0, i64 0, i64 0, i32 0, null, metadata !847, i32 0, i32 0} ; [ DW_TAG_subroutine_type ]
!847 = metadata !{null, metadata !764, metadata !244}
!848 = metadata !{i32 786478, i32 0, metadata !748, metadata !"ap_fixed_base", metadata !"ap_fixed_base", metadata !"", metadata !115, i32 1014, metadata !849, i1 false, i1 false, i32 0, i32 0, null, i32 256, i1 false, null, null, i32 0, metadata !127, i32 1014} ; [ DW_TAG_subprogram ]
!849 = metadata !{i32 786453, i32 0, metadata !"", i32 0, i32 0, i64 0, i64 0, i64 0, i32 0, null, metadata !850, i32 0, i32 0} ; [ DW_TAG_subroutine_type ]
!850 = metadata !{null, metadata !764, metadata !248}
!851 = metadata !{i32 786478, i32 0, metadata !748, metadata !"ap_fixed_base", metadata !"ap_fixed_base", metadata !"", metadata !115, i32 1018, metadata !852, i1 false, i1 false, i32 0, i32 0, null, i32 256, i1 false, null, null, i32 0, metadata !127, i32 1018} ; [ DW_TAG_subprogram ]
!852 = metadata !{i32 786453, i32 0, metadata !"", i32 0, i32 0, i64 0, i64 0, i64 0, i32 0, null, metadata !853, i32 0, i32 0} ; [ DW_TAG_subroutine_type ]
!853 = metadata !{null, metadata !764, metadata !252}
!854 = metadata !{i32 786478, i32 0, metadata !748, metadata !"operator=", metadata !"operator=", metadata !"_ZN13ap_fixed_baseILi58ELi58ELb1EL9ap_q_mode5EL9ap_o_mode3ELi0EEaSERKS2_", metadata !115, i32 1022, metadata !855, i1 false, i1 false, i32 0, i32 0, null, i32 256, i1 false, null, null, i32 0, metadata !127, i32 1022} ; [ DW_TAG_subprogram ]
!855 = metadata !{i32 786453, i32 0, metadata !"", i32 0, i32 0, i64 0, i64 0, i64 0, i32 0, null, metadata !856, i32 0, i32 0} ; [ DW_TAG_subroutine_type ]
!856 = metadata !{metadata !857, metadata !764, metadata !746}
!857 = metadata !{i32 786448, null, null, null, i32 0, i64 0, i64 0, i64 0, i32 0, metadata !748} ; [ DW_TAG_reference_type ]
!858 = metadata !{i32 786478, i32 0, metadata !748, metadata !"operator=", metadata !"operator=", metadata !"_ZN13ap_fixed_baseILi58ELi58ELb1EL9ap_q_mode5EL9ap_o_mode3ELi0EEaSERVKS2_", metadata !115, i32 1029, metadata !859, i1 false, i1 false, i32 0, i32 0, null, i32 256, i1 false, null, null, i32 0, metadata !127, i32 1029} ; [ DW_TAG_subprogram ]
!859 = metadata !{i32 786453, i32 0, metadata !"", i32 0, i32 0, i64 0, i64 0, i64 0, i32 0, null, metadata !860, i32 0, i32 0} ; [ DW_TAG_subroutine_type ]
!860 = metadata !{metadata !857, metadata !764, metadata !781}
!861 = metadata !{i32 786478, i32 0, metadata !748, metadata !"operator=", metadata !"operator=", metadata !"_ZNV13ap_fixed_baseILi58ELi58ELb1EL9ap_q_mode5EL9ap_o_mode3ELi0EEaSERKS2_", metadata !115, i32 1036, metadata !862, i1 false, i1 false, i32 0, i32 0, null, i32 256, i1 false, null, null, i32 0, metadata !127, i32 1036} ; [ DW_TAG_subprogram ]
!862 = metadata !{i32 786453, i32 0, metadata !"", i32 0, i32 0, i64 0, i64 0, i64 0, i32 0, null, metadata !863, i32 0, i32 0} ; [ DW_TAG_subroutine_type ]
!863 = metadata !{null, metadata !864, metadata !746}
!864 = metadata !{i32 786447, i32 0, metadata !"", i32 0, i32 0, i64 64, i64 64, i64 0, i32 64, metadata !783} ; [ DW_TAG_pointer_type ]
!865 = metadata !{i32 786478, i32 0, metadata !748, metadata !"operator=", metadata !"operator=", metadata !"_ZNV13ap_fixed_baseILi58ELi58ELb1EL9ap_q_mode5EL9ap_o_mode3ELi0EEaSERVKS2_", metadata !115, i32 1042, metadata !866, i1 false, i1 false, i32 0, i32 0, null, i32 256, i1 false, null, null, i32 0, metadata !127, i32 1042} ; [ DW_TAG_subprogram ]
!866 = metadata !{i32 786453, i32 0, metadata !"", i32 0, i32 0, i64 0, i64 0, i64 0, i32 0, null, metadata !867, i32 0, i32 0} ; [ DW_TAG_subroutine_type ]
!867 = metadata !{null, metadata !864, metadata !781}
!868 = metadata !{i32 786478, i32 0, metadata !748, metadata !"setBits", metadata !"setBits", metadata !"_ZN13ap_fixed_baseILi58ELi58ELb1EL9ap_q_mode5EL9ap_o_mode3ELi0EE7setBitsEy", metadata !115, i32 1051, metadata !869, i1 false, i1 false, i32 0, i32 0, null, i32 256, i1 false, null, null, i32 0, metadata !127, i32 1051} ; [ DW_TAG_subprogram ]
!869 = metadata !{i32 786453, i32 0, metadata !"", i32 0, i32 0, i64 0, i64 0, i64 0, i32 0, null, metadata !870, i32 0, i32 0} ; [ DW_TAG_subroutine_type ]
!870 = metadata !{metadata !857, metadata !764, metadata !231}
!871 = metadata !{i32 786478, i32 0, metadata !748, metadata !"bitsToFixed", metadata !"bitsToFixed", metadata !"_ZN13ap_fixed_baseILi58ELi58ELb1EL9ap_q_mode5EL9ap_o_mode3ELi0EE11bitsToFixedEy", metadata !115, i32 1057, metadata !872, i1 false, i1 false, i32 0, i32 0, null, i32 256, i1 false, null, null, i32 0, metadata !127, i32 1057} ; [ DW_TAG_subprogram ]
!872 = metadata !{i32 786453, i32 0, metadata !"", i32 0, i32 0, i64 0, i64 0, i64 0, i32 0, null, metadata !873, i32 0, i32 0} ; [ DW_TAG_subroutine_type ]
!873 = metadata !{metadata !748, metadata !231}
!874 = metadata !{i32 786478, i32 0, metadata !748, metadata !"to_ap_int_base", metadata !"to_ap_int_base", metadata !"_ZNK13ap_fixed_baseILi58ELi58ELb1EL9ap_q_mode5EL9ap_o_mode3ELi0EE14to_ap_int_baseEb", metadata !115, i32 1066, metadata !875, i1 false, i1 false, i32 0, i32 0, null, i32 256, i1 false, null, null, i32 0, metadata !127, i32 1066} ; [ DW_TAG_subprogram ]
!875 = metadata !{i32 786453, i32 0, metadata !"", i32 0, i32 0, i64 0, i64 0, i64 0, i32 0, null, metadata !876, i32 0, i32 0} ; [ DW_TAG_subroutine_type ]
!876 = metadata !{metadata !877, metadata !829, metadata !138}
!877 = metadata !{i32 786434, null, metadata !"ap_int_base<58, true, true>", metadata !160, i32 1453, i64 64, i64 32, i32 0, i32 0, null, metadata !878, i32 0, null, metadata !1112} ; [ DW_TAG_class_type ]
!878 = metadata !{metadata !879, metadata !880, metadata !884, metadata !887, metadata !890, metadata !893, metadata !896, metadata !899, metadata !902, metadata !905, metadata !908, metadata !911, metadata !914, metadata !917, metadata !920, metadata !923, metadata !926, metadata !929, metadata !932, metadata !937, metadata !942, metadata !947, metadata !948, metadata !952, metadata !955, metadata !958, metadata !961, metadata !964, metadata !967, metadata !970, metadata !973, metadata !976, metadata !979, metadata !982, metadata !985, metadata !995, metadata !998, metadata !1001, metadata !1004, metadata !1007, metadata !1010, metadata !1013, metadata !1016, metadata !1019, metadata !1022, metadata !1025, metadata !1028, metadata !1031, metadata !1032, metadata !1036, metadata !1039, metadata !1040, metadata !1041, metadata !1042, metadata !1043, metadata !1044, metadata !1047, metadata !1048, metadata !1051, metadata !1052, metadata !1053, metadata !1054, metadata !1055, metadata !1056, metadata !1059, metadata !1060, metadata !1061, metadata !1064, metadata !1065, metadata !1068, metadata !1069, metadata !1073, metadata !1077, metadata !1078, metadata !1081, metadata !1082, metadata !1086, metadata !1087, metadata !1088, metadata !1089, metadata !1092, metadata !1093, metadata !1094, metadata !1095, metadata !1096, metadata !1097, metadata !1098, metadata !1099, metadata !1100, metadata !1101, metadata !1102, metadata !1103, metadata !1106, metadata !1109}
!879 = metadata !{i32 786460, metadata !877, null, metadata !160, i32 0, i64 0, i64 0, i64 0, i32 0, metadata !751} ; [ DW_TAG_inheritance ]
!880 = metadata !{i32 786478, i32 0, metadata !877, metadata !"ap_int_base", metadata !"ap_int_base", metadata !"", metadata !160, i32 1494, metadata !881, i1 false, i1 false, i32 0, i32 0, null, i32 256, i1 false, null, null, i32 0, metadata !127, i32 1494} ; [ DW_TAG_subprogram ]
!881 = metadata !{i32 786453, i32 0, metadata !"", i32 0, i32 0, i64 0, i64 0, i64 0, i32 0, null, metadata !882, i32 0, i32 0} ; [ DW_TAG_subroutine_type ]
!882 = metadata !{null, metadata !883}
!883 = metadata !{i32 786447, i32 0, metadata !"", i32 0, i32 0, i64 64, i64 64, i64 0, i32 64, metadata !877} ; [ DW_TAG_pointer_type ]
!884 = metadata !{i32 786478, i32 0, metadata !877, metadata !"ap_int_base", metadata !"ap_int_base", metadata !"", metadata !160, i32 1516, metadata !885, i1 false, i1 false, i32 0, i32 0, null, i32 384, i1 false, null, null, i32 0, metadata !127, i32 1516} ; [ DW_TAG_subprogram ]
!885 = metadata !{i32 786453, i32 0, metadata !"", i32 0, i32 0, i64 0, i64 0, i64 0, i32 0, null, metadata !886, i32 0, i32 0} ; [ DW_TAG_subroutine_type ]
!886 = metadata !{null, metadata !883, metadata !138}
!887 = metadata !{i32 786478, i32 0, metadata !877, metadata !"ap_int_base", metadata !"ap_int_base", metadata !"", metadata !160, i32 1517, metadata !888, i1 false, i1 false, i32 0, i32 0, null, i32 384, i1 false, null, null, i32 0, metadata !127, i32 1517} ; [ DW_TAG_subprogram ]
!888 = metadata !{i32 786453, i32 0, metadata !"", i32 0, i32 0, i64 0, i64 0, i64 0, i32 0, null, metadata !889, i32 0, i32 0} ; [ DW_TAG_subroutine_type ]
!889 = metadata !{null, metadata !883, metadata !194}
!890 = metadata !{i32 786478, i32 0, metadata !877, metadata !"ap_int_base", metadata !"ap_int_base", metadata !"", metadata !160, i32 1518, metadata !891, i1 false, i1 false, i32 0, i32 0, null, i32 384, i1 false, null, null, i32 0, metadata !127, i32 1518} ; [ DW_TAG_subprogram ]
!891 = metadata !{i32 786453, i32 0, metadata !"", i32 0, i32 0, i64 0, i64 0, i64 0, i32 0, null, metadata !892, i32 0, i32 0} ; [ DW_TAG_subroutine_type ]
!892 = metadata !{null, metadata !883, metadata !198}
!893 = metadata !{i32 786478, i32 0, metadata !877, metadata !"ap_int_base", metadata !"ap_int_base", metadata !"", metadata !160, i32 1519, metadata !894, i1 false, i1 false, i32 0, i32 0, null, i32 384, i1 false, null, null, i32 0, metadata !127, i32 1519} ; [ DW_TAG_subprogram ]
!894 = metadata !{i32 786453, i32 0, metadata !"", i32 0, i32 0, i64 0, i64 0, i64 0, i32 0, null, metadata !895, i32 0, i32 0} ; [ DW_TAG_subroutine_type ]
!895 = metadata !{null, metadata !883, metadata !202}
!896 = metadata !{i32 786478, i32 0, metadata !877, metadata !"ap_int_base", metadata !"ap_int_base", metadata !"", metadata !160, i32 1520, metadata !897, i1 false, i1 false, i32 0, i32 0, null, i32 384, i1 false, null, null, i32 0, metadata !127, i32 1520} ; [ DW_TAG_subprogram ]
!897 = metadata !{i32 786453, i32 0, metadata !"", i32 0, i32 0, i64 0, i64 0, i64 0, i32 0, null, metadata !898, i32 0, i32 0} ; [ DW_TAG_subroutine_type ]
!898 = metadata !{null, metadata !883, metadata !206}
!899 = metadata !{i32 786478, i32 0, metadata !877, metadata !"ap_int_base", metadata !"ap_int_base", metadata !"", metadata !160, i32 1521, metadata !900, i1 false, i1 false, i32 0, i32 0, null, i32 384, i1 false, null, null, i32 0, metadata !127, i32 1521} ; [ DW_TAG_subprogram ]
!900 = metadata !{i32 786453, i32 0, metadata !"", i32 0, i32 0, i64 0, i64 0, i64 0, i32 0, null, metadata !901, i32 0, i32 0} ; [ DW_TAG_subroutine_type ]
!901 = metadata !{null, metadata !883, metadata !136}
!902 = metadata !{i32 786478, i32 0, metadata !877, metadata !"ap_int_base", metadata !"ap_int_base", metadata !"", metadata !160, i32 1522, metadata !903, i1 false, i1 false, i32 0, i32 0, null, i32 384, i1 false, null, null, i32 0, metadata !127, i32 1522} ; [ DW_TAG_subprogram ]
!903 = metadata !{i32 786453, i32 0, metadata !"", i32 0, i32 0, i64 0, i64 0, i64 0, i32 0, null, metadata !904, i32 0, i32 0} ; [ DW_TAG_subroutine_type ]
!904 = metadata !{null, metadata !883, metadata !213}
!905 = metadata !{i32 786478, i32 0, metadata !877, metadata !"ap_int_base", metadata !"ap_int_base", metadata !"", metadata !160, i32 1523, metadata !906, i1 false, i1 false, i32 0, i32 0, null, i32 384, i1 false, null, null, i32 0, metadata !127, i32 1523} ; [ DW_TAG_subprogram ]
!906 = metadata !{i32 786453, i32 0, metadata !"", i32 0, i32 0, i64 0, i64 0, i64 0, i32 0, null, metadata !907, i32 0, i32 0} ; [ DW_TAG_subroutine_type ]
!907 = metadata !{null, metadata !883, metadata !217}
!908 = metadata !{i32 786478, i32 0, metadata !877, metadata !"ap_int_base", metadata !"ap_int_base", metadata !"", metadata !160, i32 1524, metadata !909, i1 false, i1 false, i32 0, i32 0, null, i32 384, i1 false, null, null, i32 0, metadata !127, i32 1524} ; [ DW_TAG_subprogram ]
!909 = metadata !{i32 786453, i32 0, metadata !"", i32 0, i32 0, i64 0, i64 0, i64 0, i32 0, null, metadata !910, i32 0, i32 0} ; [ DW_TAG_subroutine_type ]
!910 = metadata !{null, metadata !883, metadata !221}
!911 = metadata !{i32 786478, i32 0, metadata !877, metadata !"ap_int_base", metadata !"ap_int_base", metadata !"", metadata !160, i32 1525, metadata !912, i1 false, i1 false, i32 0, i32 0, null, i32 384, i1 false, null, null, i32 0, metadata !127, i32 1525} ; [ DW_TAG_subprogram ]
!912 = metadata !{i32 786453, i32 0, metadata !"", i32 0, i32 0, i64 0, i64 0, i64 0, i32 0, null, metadata !913, i32 0, i32 0} ; [ DW_TAG_subroutine_type ]
!913 = metadata !{null, metadata !883, metadata !225}
!914 = metadata !{i32 786478, i32 0, metadata !877, metadata !"ap_int_base", metadata !"ap_int_base", metadata !"", metadata !160, i32 1526, metadata !915, i1 false, i1 false, i32 0, i32 0, null, i32 384, i1 false, null, null, i32 0, metadata !127, i32 1526} ; [ DW_TAG_subprogram ]
!915 = metadata !{i32 786453, i32 0, metadata !"", i32 0, i32 0, i64 0, i64 0, i64 0, i32 0, null, metadata !916, i32 0, i32 0} ; [ DW_TAG_subroutine_type ]
!916 = metadata !{null, metadata !883, metadata !230}
!917 = metadata !{i32 786478, i32 0, metadata !877, metadata !"ap_int_base", metadata !"ap_int_base", metadata !"", metadata !160, i32 1527, metadata !918, i1 false, i1 false, i32 0, i32 0, null, i32 384, i1 false, null, null, i32 0, metadata !127, i32 1527} ; [ DW_TAG_subprogram ]
!918 = metadata !{i32 786453, i32 0, metadata !"", i32 0, i32 0, i64 0, i64 0, i64 0, i32 0, null, metadata !919, i32 0, i32 0} ; [ DW_TAG_subroutine_type ]
!919 = metadata !{null, metadata !883, metadata !252}
!920 = metadata !{i32 786478, i32 0, metadata !877, metadata !"ap_int_base", metadata !"ap_int_base", metadata !"", metadata !160, i32 1528, metadata !921, i1 false, i1 false, i32 0, i32 0, null, i32 384, i1 false, null, null, i32 0, metadata !127, i32 1528} ; [ DW_TAG_subprogram ]
!921 = metadata !{i32 786453, i32 0, metadata !"", i32 0, i32 0, i64 0, i64 0, i64 0, i32 0, null, metadata !922, i32 0, i32 0} ; [ DW_TAG_subroutine_type ]
!922 = metadata !{null, metadata !883, metadata !248}
!923 = metadata !{i32 786478, i32 0, metadata !877, metadata !"ap_int_base", metadata !"ap_int_base", metadata !"", metadata !160, i32 1529, metadata !924, i1 false, i1 false, i32 0, i32 0, null, i32 384, i1 false, null, null, i32 0, metadata !127, i32 1529} ; [ DW_TAG_subprogram ]
!924 = metadata !{i32 786453, i32 0, metadata !"", i32 0, i32 0, i64 0, i64 0, i64 0, i32 0, null, metadata !925, i32 0, i32 0} ; [ DW_TAG_subroutine_type ]
!925 = metadata !{null, metadata !883, metadata !244}
!926 = metadata !{i32 786478, i32 0, metadata !877, metadata !"ap_int_base", metadata !"ap_int_base", metadata !"", metadata !160, i32 1556, metadata !927, i1 false, i1 false, i32 0, i32 0, null, i32 256, i1 false, null, null, i32 0, metadata !127, i32 1556} ; [ DW_TAG_subprogram ]
!927 = metadata !{i32 786453, i32 0, metadata !"", i32 0, i32 0, i64 0, i64 0, i64 0, i32 0, null, metadata !928, i32 0, i32 0} ; [ DW_TAG_subroutine_type ]
!928 = metadata !{null, metadata !883, metadata !235}
!929 = metadata !{i32 786478, i32 0, metadata !877, metadata !"ap_int_base", metadata !"ap_int_base", metadata !"", metadata !160, i32 1563, metadata !930, i1 false, i1 false, i32 0, i32 0, null, i32 256, i1 false, null, null, i32 0, metadata !127, i32 1563} ; [ DW_TAG_subprogram ]
!930 = metadata !{i32 786453, i32 0, metadata !"", i32 0, i32 0, i64 0, i64 0, i64 0, i32 0, null, metadata !931, i32 0, i32 0} ; [ DW_TAG_subroutine_type ]
!931 = metadata !{null, metadata !883, metadata !235, metadata !194}
!932 = metadata !{i32 786478, i32 0, metadata !877, metadata !"read", metadata !"read", metadata !"_ZNV11ap_int_baseILi58ELb1ELb1EE4readEv", metadata !160, i32 1584, metadata !933, i1 false, i1 false, i32 0, i32 0, null, i32 256, i1 false, null, null, i32 0, metadata !127, i32 1584} ; [ DW_TAG_subprogram ]
!933 = metadata !{i32 786453, i32 0, metadata !"", i32 0, i32 0, i64 0, i64 0, i64 0, i32 0, null, metadata !934, i32 0, i32 0} ; [ DW_TAG_subroutine_type ]
!934 = metadata !{metadata !877, metadata !935}
!935 = metadata !{i32 786447, i32 0, metadata !"", i32 0, i32 0, i64 64, i64 64, i64 0, i32 64, metadata !936} ; [ DW_TAG_pointer_type ]
!936 = metadata !{i32 786485, null, metadata !"", null, i32 0, i64 0, i64 0, i64 0, i32 0, metadata !877} ; [ DW_TAG_volatile_type ]
!937 = metadata !{i32 786478, i32 0, metadata !877, metadata !"write", metadata !"write", metadata !"_ZNV11ap_int_baseILi58ELb1ELb1EE5writeERKS0_", metadata !160, i32 1590, metadata !938, i1 false, i1 false, i32 0, i32 0, null, i32 256, i1 false, null, null, i32 0, metadata !127, i32 1590} ; [ DW_TAG_subprogram ]
!938 = metadata !{i32 786453, i32 0, metadata !"", i32 0, i32 0, i64 0, i64 0, i64 0, i32 0, null, metadata !939, i32 0, i32 0} ; [ DW_TAG_subroutine_type ]
!939 = metadata !{null, metadata !935, metadata !940}
!940 = metadata !{i32 786448, null, null, null, i32 0, i64 0, i64 0, i64 0, i32 0, metadata !941} ; [ DW_TAG_reference_type ]
!941 = metadata !{i32 786470, null, metadata !"", null, i32 0, i64 0, i64 0, i64 0, i32 0, metadata !877} ; [ DW_TAG_const_type ]
!942 = metadata !{i32 786478, i32 0, metadata !877, metadata !"operator=", metadata !"operator=", metadata !"_ZNV11ap_int_baseILi58ELb1ELb1EEaSERVKS0_", metadata !160, i32 1602, metadata !943, i1 false, i1 false, i32 0, i32 0, null, i32 256, i1 false, null, null, i32 0, metadata !127, i32 1602} ; [ DW_TAG_subprogram ]
!943 = metadata !{i32 786453, i32 0, metadata !"", i32 0, i32 0, i64 0, i64 0, i64 0, i32 0, null, metadata !944, i32 0, i32 0} ; [ DW_TAG_subroutine_type ]
!944 = metadata !{null, metadata !935, metadata !945}
!945 = metadata !{i32 786448, null, null, null, i32 0, i64 0, i64 0, i64 0, i32 0, metadata !946} ; [ DW_TAG_reference_type ]
!946 = metadata !{i32 786470, null, metadata !"", null, i32 0, i64 0, i64 0, i64 0, i32 0, metadata !936} ; [ DW_TAG_const_type ]
!947 = metadata !{i32 786478, i32 0, metadata !877, metadata !"operator=", metadata !"operator=", metadata !"_ZNV11ap_int_baseILi58ELb1ELb1EEaSERKS0_", metadata !160, i32 1611, metadata !938, i1 false, i1 false, i32 0, i32 0, null, i32 256, i1 false, null, null, i32 0, metadata !127, i32 1611} ; [ DW_TAG_subprogram ]
!948 = metadata !{i32 786478, i32 0, metadata !877, metadata !"operator=", metadata !"operator=", metadata !"_ZN11ap_int_baseILi58ELb1ELb1EEaSERVKS0_", metadata !160, i32 1634, metadata !949, i1 false, i1 false, i32 0, i32 0, null, i32 256, i1 false, null, null, i32 0, metadata !127, i32 1634} ; [ DW_TAG_subprogram ]
!949 = metadata !{i32 786453, i32 0, metadata !"", i32 0, i32 0, i64 0, i64 0, i64 0, i32 0, null, metadata !950, i32 0, i32 0} ; [ DW_TAG_subroutine_type ]
!950 = metadata !{metadata !951, metadata !883, metadata !945}
!951 = metadata !{i32 786448, null, null, null, i32 0, i64 0, i64 0, i64 0, i32 0, metadata !877} ; [ DW_TAG_reference_type ]
!952 = metadata !{i32 786478, i32 0, metadata !877, metadata !"operator=", metadata !"operator=", metadata !"_ZN11ap_int_baseILi58ELb1ELb1EEaSERKS0_", metadata !160, i32 1639, metadata !953, i1 false, i1 false, i32 0, i32 0, null, i32 256, i1 false, null, null, i32 0, metadata !127, i32 1639} ; [ DW_TAG_subprogram ]
!953 = metadata !{i32 786453, i32 0, metadata !"", i32 0, i32 0, i64 0, i64 0, i64 0, i32 0, null, metadata !954, i32 0, i32 0} ; [ DW_TAG_subroutine_type ]
!954 = metadata !{metadata !951, metadata !883, metadata !940}
!955 = metadata !{i32 786478, i32 0, metadata !877, metadata !"operator=", metadata !"operator=", metadata !"_ZN11ap_int_baseILi58ELb1ELb1EEaSEPKc", metadata !160, i32 1643, metadata !956, i1 false, i1 false, i32 0, i32 0, null, i32 256, i1 false, null, null, i32 0, metadata !127, i32 1643} ; [ DW_TAG_subprogram ]
!956 = metadata !{i32 786453, i32 0, metadata !"", i32 0, i32 0, i64 0, i64 0, i64 0, i32 0, null, metadata !957, i32 0, i32 0} ; [ DW_TAG_subroutine_type ]
!957 = metadata !{metadata !951, metadata !883, metadata !235}
!958 = metadata !{i32 786478, i32 0, metadata !877, metadata !"set", metadata !"set", metadata !"_ZN11ap_int_baseILi58ELb1ELb1EE3setEPKca", metadata !160, i32 1651, metadata !959, i1 false, i1 false, i32 0, i32 0, null, i32 256, i1 false, null, null, i32 0, metadata !127, i32 1651} ; [ DW_TAG_subprogram ]
!959 = metadata !{i32 786453, i32 0, metadata !"", i32 0, i32 0, i64 0, i64 0, i64 0, i32 0, null, metadata !960, i32 0, i32 0} ; [ DW_TAG_subroutine_type ]
!960 = metadata !{metadata !951, metadata !883, metadata !235, metadata !194}
!961 = metadata !{i32 786478, i32 0, metadata !877, metadata !"operator=", metadata !"operator=", metadata !"_ZN11ap_int_baseILi58ELb1ELb1EEaSEa", metadata !160, i32 1665, metadata !962, i1 false, i1 false, i32 0, i32 0, null, i32 256, i1 false, null, null, i32 0, metadata !127, i32 1665} ; [ DW_TAG_subprogram ]
!962 = metadata !{i32 786453, i32 0, metadata !"", i32 0, i32 0, i64 0, i64 0, i64 0, i32 0, null, metadata !963, i32 0, i32 0} ; [ DW_TAG_subroutine_type ]
!963 = metadata !{metadata !951, metadata !883, metadata !194}
!964 = metadata !{i32 786478, i32 0, metadata !877, metadata !"operator=", metadata !"operator=", metadata !"_ZN11ap_int_baseILi58ELb1ELb1EEaSEh", metadata !160, i32 1666, metadata !965, i1 false, i1 false, i32 0, i32 0, null, i32 256, i1 false, null, null, i32 0, metadata !127, i32 1666} ; [ DW_TAG_subprogram ]
!965 = metadata !{i32 786453, i32 0, metadata !"", i32 0, i32 0, i64 0, i64 0, i64 0, i32 0, null, metadata !966, i32 0, i32 0} ; [ DW_TAG_subroutine_type ]
!966 = metadata !{metadata !951, metadata !883, metadata !198}
!967 = metadata !{i32 786478, i32 0, metadata !877, metadata !"operator=", metadata !"operator=", metadata !"_ZN11ap_int_baseILi58ELb1ELb1EEaSEs", metadata !160, i32 1667, metadata !968, i1 false, i1 false, i32 0, i32 0, null, i32 256, i1 false, null, null, i32 0, metadata !127, i32 1667} ; [ DW_TAG_subprogram ]
!968 = metadata !{i32 786453, i32 0, metadata !"", i32 0, i32 0, i64 0, i64 0, i64 0, i32 0, null, metadata !969, i32 0, i32 0} ; [ DW_TAG_subroutine_type ]
!969 = metadata !{metadata !951, metadata !883, metadata !202}
!970 = metadata !{i32 786478, i32 0, metadata !877, metadata !"operator=", metadata !"operator=", metadata !"_ZN11ap_int_baseILi58ELb1ELb1EEaSEt", metadata !160, i32 1668, metadata !971, i1 false, i1 false, i32 0, i32 0, null, i32 256, i1 false, null, null, i32 0, metadata !127, i32 1668} ; [ DW_TAG_subprogram ]
!971 = metadata !{i32 786453, i32 0, metadata !"", i32 0, i32 0, i64 0, i64 0, i64 0, i32 0, null, metadata !972, i32 0, i32 0} ; [ DW_TAG_subroutine_type ]
!972 = metadata !{metadata !951, metadata !883, metadata !206}
!973 = metadata !{i32 786478, i32 0, metadata !877, metadata !"operator=", metadata !"operator=", metadata !"_ZN11ap_int_baseILi58ELb1ELb1EEaSEi", metadata !160, i32 1669, metadata !974, i1 false, i1 false, i32 0, i32 0, null, i32 256, i1 false, null, null, i32 0, metadata !127, i32 1669} ; [ DW_TAG_subprogram ]
!974 = metadata !{i32 786453, i32 0, metadata !"", i32 0, i32 0, i64 0, i64 0, i64 0, i32 0, null, metadata !975, i32 0, i32 0} ; [ DW_TAG_subroutine_type ]
!975 = metadata !{metadata !951, metadata !883, metadata !136}
!976 = metadata !{i32 786478, i32 0, metadata !877, metadata !"operator=", metadata !"operator=", metadata !"_ZN11ap_int_baseILi58ELb1ELb1EEaSEj", metadata !160, i32 1670, metadata !977, i1 false, i1 false, i32 0, i32 0, null, i32 256, i1 false, null, null, i32 0, metadata !127, i32 1670} ; [ DW_TAG_subprogram ]
!977 = metadata !{i32 786453, i32 0, metadata !"", i32 0, i32 0, i64 0, i64 0, i64 0, i32 0, null, metadata !978, i32 0, i32 0} ; [ DW_TAG_subroutine_type ]
!978 = metadata !{metadata !951, metadata !883, metadata !213}
!979 = metadata !{i32 786478, i32 0, metadata !877, metadata !"operator=", metadata !"operator=", metadata !"_ZN11ap_int_baseILi58ELb1ELb1EEaSEx", metadata !160, i32 1671, metadata !980, i1 false, i1 false, i32 0, i32 0, null, i32 256, i1 false, null, null, i32 0, metadata !127, i32 1671} ; [ DW_TAG_subprogram ]
!980 = metadata !{i32 786453, i32 0, metadata !"", i32 0, i32 0, i64 0, i64 0, i64 0, i32 0, null, metadata !981, i32 0, i32 0} ; [ DW_TAG_subroutine_type ]
!981 = metadata !{metadata !951, metadata !883, metadata !225}
!982 = metadata !{i32 786478, i32 0, metadata !877, metadata !"operator=", metadata !"operator=", metadata !"_ZN11ap_int_baseILi58ELb1ELb1EEaSEy", metadata !160, i32 1672, metadata !983, i1 false, i1 false, i32 0, i32 0, null, i32 256, i1 false, null, null, i32 0, metadata !127, i32 1672} ; [ DW_TAG_subprogram ]
!983 = metadata !{i32 786453, i32 0, metadata !"", i32 0, i32 0, i64 0, i64 0, i64 0, i32 0, null, metadata !984, i32 0, i32 0} ; [ DW_TAG_subroutine_type ]
!984 = metadata !{metadata !951, metadata !883, metadata !230}
!985 = metadata !{i32 786478, i32 0, metadata !877, metadata !"operator long long", metadata !"operator long long", metadata !"_ZNK11ap_int_baseILi58ELb1ELb1EEcvxEv", metadata !160, i32 1710, metadata !986, i1 false, i1 false, i32 0, i32 0, null, i32 256, i1 false, null, null, i32 0, metadata !127, i32 1710} ; [ DW_TAG_subprogram ]
!986 = metadata !{i32 786453, i32 0, metadata !"", i32 0, i32 0, i64 0, i64 0, i64 0, i32 0, null, metadata !987, i32 0, i32 0} ; [ DW_TAG_subroutine_type ]
!987 = metadata !{metadata !988, metadata !994}
!988 = metadata !{i32 786454, metadata !877, metadata !"RetType", metadata !160, i32 1458, i64 0, i64 0, i64 0, i32 0, metadata !989} ; [ DW_TAG_typedef ]
!989 = metadata !{i32 786454, metadata !990, metadata !"Type", metadata !160, i32 1415, i64 0, i64 0, i64 0, i32 0, metadata !225} ; [ DW_TAG_typedef ]
!990 = metadata !{i32 786434, null, metadata !"retval<8, true>", metadata !160, i32 1414, i64 8, i64 8, i32 0, i32 0, null, metadata !991, i32 0, null, metadata !992} ; [ DW_TAG_class_type ]
!991 = metadata !{i32 0}
!992 = metadata !{metadata !993, metadata !137}
!993 = metadata !{i32 786480, null, metadata !"_AP_N", metadata !136, i64 8, null, i32 0, i32 0} ; [ DW_TAG_template_value_parameter ]
!994 = metadata !{i32 786447, i32 0, metadata !"", i32 0, i32 0, i64 64, i64 64, i64 0, i32 64, metadata !941} ; [ DW_TAG_pointer_type ]
!995 = metadata !{i32 786478, i32 0, metadata !877, metadata !"to_bool", metadata !"to_bool", metadata !"_ZNK11ap_int_baseILi58ELb1ELb1EE7to_boolEv", metadata !160, i32 1716, metadata !996, i1 false, i1 false, i32 0, i32 0, null, i32 256, i1 false, null, null, i32 0, metadata !127, i32 1716} ; [ DW_TAG_subprogram ]
!996 = metadata !{i32 786453, i32 0, metadata !"", i32 0, i32 0, i64 0, i64 0, i64 0, i32 0, null, metadata !997, i32 0, i32 0} ; [ DW_TAG_subroutine_type ]
!997 = metadata !{metadata !138, metadata !994}
!998 = metadata !{i32 786478, i32 0, metadata !877, metadata !"to_uchar", metadata !"to_uchar", metadata !"_ZNK11ap_int_baseILi58ELb1ELb1EE8to_ucharEv", metadata !160, i32 1717, metadata !999, i1 false, i1 false, i32 0, i32 0, null, i32 256, i1 false, null, null, i32 0, metadata !127, i32 1717} ; [ DW_TAG_subprogram ]
!999 = metadata !{i32 786453, i32 0, metadata !"", i32 0, i32 0, i64 0, i64 0, i64 0, i32 0, null, metadata !1000, i32 0, i32 0} ; [ DW_TAG_subroutine_type ]
!1000 = metadata !{metadata !198, metadata !994}
!1001 = metadata !{i32 786478, i32 0, metadata !877, metadata !"to_char", metadata !"to_char", metadata !"_ZNK11ap_int_baseILi58ELb1ELb1EE7to_charEv", metadata !160, i32 1718, metadata !1002, i1 false, i1 false, i32 0, i32 0, null, i32 256, i1 false, null, null, i32 0, metadata !127, i32 1718} ; [ DW_TAG_subprogram ]
!1002 = metadata !{i32 786453, i32 0, metadata !"", i32 0, i32 0, i64 0, i64 0, i64 0, i32 0, null, metadata !1003, i32 0, i32 0} ; [ DW_TAG_subroutine_type ]
!1003 = metadata !{metadata !194, metadata !994}
!1004 = metadata !{i32 786478, i32 0, metadata !877, metadata !"to_ushort", metadata !"to_ushort", metadata !"_ZNK11ap_int_baseILi58ELb1ELb1EE9to_ushortEv", metadata !160, i32 1719, metadata !1005, i1 false, i1 false, i32 0, i32 0, null, i32 256, i1 false, null, null, i32 0, metadata !127, i32 1719} ; [ DW_TAG_subprogram ]
!1005 = metadata !{i32 786453, i32 0, metadata !"", i32 0, i32 0, i64 0, i64 0, i64 0, i32 0, null, metadata !1006, i32 0, i32 0} ; [ DW_TAG_subroutine_type ]
!1006 = metadata !{metadata !206, metadata !994}
!1007 = metadata !{i32 786478, i32 0, metadata !877, metadata !"to_short", metadata !"to_short", metadata !"_ZNK11ap_int_baseILi58ELb1ELb1EE8to_shortEv", metadata !160, i32 1720, metadata !1008, i1 false, i1 false, i32 0, i32 0, null, i32 256, i1 false, null, null, i32 0, metadata !127, i32 1720} ; [ DW_TAG_subprogram ]
!1008 = metadata !{i32 786453, i32 0, metadata !"", i32 0, i32 0, i64 0, i64 0, i64 0, i32 0, null, metadata !1009, i32 0, i32 0} ; [ DW_TAG_subroutine_type ]
!1009 = metadata !{metadata !202, metadata !994}
!1010 = metadata !{i32 786478, i32 0, metadata !877, metadata !"to_int", metadata !"to_int", metadata !"_ZNK11ap_int_baseILi58ELb1ELb1EE6to_intEv", metadata !160, i32 1721, metadata !1011, i1 false, i1 false, i32 0, i32 0, null, i32 256, i1 false, null, null, i32 0, metadata !127, i32 1721} ; [ DW_TAG_subprogram ]
!1011 = metadata !{i32 786453, i32 0, metadata !"", i32 0, i32 0, i64 0, i64 0, i64 0, i32 0, null, metadata !1012, i32 0, i32 0} ; [ DW_TAG_subroutine_type ]
!1012 = metadata !{metadata !136, metadata !994}
!1013 = metadata !{i32 786478, i32 0, metadata !877, metadata !"to_uint", metadata !"to_uint", metadata !"_ZNK11ap_int_baseILi58ELb1ELb1EE7to_uintEv", metadata !160, i32 1722, metadata !1014, i1 false, i1 false, i32 0, i32 0, null, i32 256, i1 false, null, null, i32 0, metadata !127, i32 1722} ; [ DW_TAG_subprogram ]
!1014 = metadata !{i32 786453, i32 0, metadata !"", i32 0, i32 0, i64 0, i64 0, i64 0, i32 0, null, metadata !1015, i32 0, i32 0} ; [ DW_TAG_subroutine_type ]
!1015 = metadata !{metadata !213, metadata !994}
!1016 = metadata !{i32 786478, i32 0, metadata !877, metadata !"to_long", metadata !"to_long", metadata !"_ZNK11ap_int_baseILi58ELb1ELb1EE7to_longEv", metadata !160, i32 1723, metadata !1017, i1 false, i1 false, i32 0, i32 0, null, i32 256, i1 false, null, null, i32 0, metadata !127, i32 1723} ; [ DW_TAG_subprogram ]
!1017 = metadata !{i32 786453, i32 0, metadata !"", i32 0, i32 0, i64 0, i64 0, i64 0, i32 0, null, metadata !1018, i32 0, i32 0} ; [ DW_TAG_subroutine_type ]
!1018 = metadata !{metadata !217, metadata !994}
!1019 = metadata !{i32 786478, i32 0, metadata !877, metadata !"to_ulong", metadata !"to_ulong", metadata !"_ZNK11ap_int_baseILi58ELb1ELb1EE8to_ulongEv", metadata !160, i32 1724, metadata !1020, i1 false, i1 false, i32 0, i32 0, null, i32 256, i1 false, null, null, i32 0, metadata !127, i32 1724} ; [ DW_TAG_subprogram ]
!1020 = metadata !{i32 786453, i32 0, metadata !"", i32 0, i32 0, i64 0, i64 0, i64 0, i32 0, null, metadata !1021, i32 0, i32 0} ; [ DW_TAG_subroutine_type ]
!1021 = metadata !{metadata !221, metadata !994}
!1022 = metadata !{i32 786478, i32 0, metadata !877, metadata !"to_int64", metadata !"to_int64", metadata !"_ZNK11ap_int_baseILi58ELb1ELb1EE8to_int64Ev", metadata !160, i32 1725, metadata !1023, i1 false, i1 false, i32 0, i32 0, null, i32 256, i1 false, null, null, i32 0, metadata !127, i32 1725} ; [ DW_TAG_subprogram ]
!1023 = metadata !{i32 786453, i32 0, metadata !"", i32 0, i32 0, i64 0, i64 0, i64 0, i32 0, null, metadata !1024, i32 0, i32 0} ; [ DW_TAG_subroutine_type ]
!1024 = metadata !{metadata !225, metadata !994}
!1025 = metadata !{i32 786478, i32 0, metadata !877, metadata !"to_uint64", metadata !"to_uint64", metadata !"_ZNK11ap_int_baseILi58ELb1ELb1EE9to_uint64Ev", metadata !160, i32 1726, metadata !1026, i1 false, i1 false, i32 0, i32 0, null, i32 256, i1 false, null, null, i32 0, metadata !127, i32 1726} ; [ DW_TAG_subprogram ]
!1026 = metadata !{i32 786453, i32 0, metadata !"", i32 0, i32 0, i64 0, i64 0, i64 0, i32 0, null, metadata !1027, i32 0, i32 0} ; [ DW_TAG_subroutine_type ]
!1027 = metadata !{metadata !230, metadata !994}
!1028 = metadata !{i32 786478, i32 0, metadata !877, metadata !"to_double", metadata !"to_double", metadata !"_ZNK11ap_int_baseILi58ELb1ELb1EE9to_doubleEv", metadata !160, i32 1727, metadata !1029, i1 false, i1 false, i32 0, i32 0, null, i32 256, i1 false, null, null, i32 0, metadata !127, i32 1727} ; [ DW_TAG_subprogram ]
!1029 = metadata !{i32 786453, i32 0, metadata !"", i32 0, i32 0, i64 0, i64 0, i64 0, i32 0, null, metadata !1030, i32 0, i32 0} ; [ DW_TAG_subroutine_type ]
!1030 = metadata !{metadata !244, metadata !994}
!1031 = metadata !{i32 786478, i32 0, metadata !877, metadata !"length", metadata !"length", metadata !"_ZNK11ap_int_baseILi58ELb1ELb1EE6lengthEv", metadata !160, i32 1741, metadata !1011, i1 false, i1 false, i32 0, i32 0, null, i32 256, i1 false, null, null, i32 0, metadata !127, i32 1741} ; [ DW_TAG_subprogram ]
!1032 = metadata !{i32 786478, i32 0, metadata !877, metadata !"length", metadata !"length", metadata !"_ZNVK11ap_int_baseILi58ELb1ELb1EE6lengthEv", metadata !160, i32 1742, metadata !1033, i1 false, i1 false, i32 0, i32 0, null, i32 256, i1 false, null, null, i32 0, metadata !127, i32 1742} ; [ DW_TAG_subprogram ]
!1033 = metadata !{i32 786453, i32 0, metadata !"", i32 0, i32 0, i64 0, i64 0, i64 0, i32 0, null, metadata !1034, i32 0, i32 0} ; [ DW_TAG_subroutine_type ]
!1034 = metadata !{metadata !136, metadata !1035}
!1035 = metadata !{i32 786447, i32 0, metadata !"", i32 0, i32 0, i64 64, i64 64, i64 0, i32 64, metadata !946} ; [ DW_TAG_pointer_type ]
!1036 = metadata !{i32 786478, i32 0, metadata !877, metadata !"reverse", metadata !"reverse", metadata !"_ZN11ap_int_baseILi58ELb1ELb1EE7reverseEv", metadata !160, i32 1747, metadata !1037, i1 false, i1 false, i32 0, i32 0, null, i32 256, i1 false, null, null, i32 0, metadata !127, i32 1747} ; [ DW_TAG_subprogram ]
!1037 = metadata !{i32 786453, i32 0, metadata !"", i32 0, i32 0, i64 0, i64 0, i64 0, i32 0, null, metadata !1038, i32 0, i32 0} ; [ DW_TAG_subroutine_type ]
!1038 = metadata !{metadata !951, metadata !883}
!1039 = metadata !{i32 786478, i32 0, metadata !877, metadata !"iszero", metadata !"iszero", metadata !"_ZNK11ap_int_baseILi58ELb1ELb1EE6iszeroEv", metadata !160, i32 1753, metadata !996, i1 false, i1 false, i32 0, i32 0, null, i32 256, i1 false, null, null, i32 0, metadata !127, i32 1753} ; [ DW_TAG_subprogram ]
!1040 = metadata !{i32 786478, i32 0, metadata !877, metadata !"is_zero", metadata !"is_zero", metadata !"_ZNK11ap_int_baseILi58ELb1ELb1EE7is_zeroEv", metadata !160, i32 1758, metadata !996, i1 false, i1 false, i32 0, i32 0, null, i32 256, i1 false, null, null, i32 0, metadata !127, i32 1758} ; [ DW_TAG_subprogram ]
!1041 = metadata !{i32 786478, i32 0, metadata !877, metadata !"sign", metadata !"sign", metadata !"_ZNK11ap_int_baseILi58ELb1ELb1EE4signEv", metadata !160, i32 1763, metadata !996, i1 false, i1 false, i32 0, i32 0, null, i32 256, i1 false, null, null, i32 0, metadata !127, i32 1763} ; [ DW_TAG_subprogram ]
!1042 = metadata !{i32 786478, i32 0, metadata !877, metadata !"clear", metadata !"clear", metadata !"_ZN11ap_int_baseILi58ELb1ELb1EE5clearEi", metadata !160, i32 1771, metadata !900, i1 false, i1 false, i32 0, i32 0, null, i32 256, i1 false, null, null, i32 0, metadata !127, i32 1771} ; [ DW_TAG_subprogram ]
!1043 = metadata !{i32 786478, i32 0, metadata !877, metadata !"invert", metadata !"invert", metadata !"_ZN11ap_int_baseILi58ELb1ELb1EE6invertEi", metadata !160, i32 1777, metadata !900, i1 false, i1 false, i32 0, i32 0, null, i32 256, i1 false, null, null, i32 0, metadata !127, i32 1777} ; [ DW_TAG_subprogram ]
!1044 = metadata !{i32 786478, i32 0, metadata !877, metadata !"test", metadata !"test", metadata !"_ZNK11ap_int_baseILi58ELb1ELb1EE4testEi", metadata !160, i32 1785, metadata !1045, i1 false, i1 false, i32 0, i32 0, null, i32 256, i1 false, null, null, i32 0, metadata !127, i32 1785} ; [ DW_TAG_subprogram ]
!1045 = metadata !{i32 786453, i32 0, metadata !"", i32 0, i32 0, i64 0, i64 0, i64 0, i32 0, null, metadata !1046, i32 0, i32 0} ; [ DW_TAG_subroutine_type ]
!1046 = metadata !{metadata !138, metadata !994, metadata !136}
!1047 = metadata !{i32 786478, i32 0, metadata !877, metadata !"set", metadata !"set", metadata !"_ZN11ap_int_baseILi58ELb1ELb1EE3setEi", metadata !160, i32 1791, metadata !900, i1 false, i1 false, i32 0, i32 0, null, i32 256, i1 false, null, null, i32 0, metadata !127, i32 1791} ; [ DW_TAG_subprogram ]
!1048 = metadata !{i32 786478, i32 0, metadata !877, metadata !"set", metadata !"set", metadata !"_ZN11ap_int_baseILi58ELb1ELb1EE3setEib", metadata !160, i32 1797, metadata !1049, i1 false, i1 false, i32 0, i32 0, null, i32 256, i1 false, null, null, i32 0, metadata !127, i32 1797} ; [ DW_TAG_subprogram ]
!1049 = metadata !{i32 786453, i32 0, metadata !"", i32 0, i32 0, i64 0, i64 0, i64 0, i32 0, null, metadata !1050, i32 0, i32 0} ; [ DW_TAG_subroutine_type ]
!1050 = metadata !{null, metadata !883, metadata !136, metadata !138}
!1051 = metadata !{i32 786478, i32 0, metadata !877, metadata !"lrotate", metadata !"lrotate", metadata !"_ZN11ap_int_baseILi58ELb1ELb1EE7lrotateEi", metadata !160, i32 1804, metadata !900, i1 false, i1 false, i32 0, i32 0, null, i32 256, i1 false, null, null, i32 0, metadata !127, i32 1804} ; [ DW_TAG_subprogram ]
!1052 = metadata !{i32 786478, i32 0, metadata !877, metadata !"rrotate", metadata !"rrotate", metadata !"_ZN11ap_int_baseILi58ELb1ELb1EE7rrotateEi", metadata !160, i32 1813, metadata !900, i1 false, i1 false, i32 0, i32 0, null, i32 256, i1 false, null, null, i32 0, metadata !127, i32 1813} ; [ DW_TAG_subprogram ]
!1053 = metadata !{i32 786478, i32 0, metadata !877, metadata !"set_bit", metadata !"set_bit", metadata !"_ZN11ap_int_baseILi58ELb1ELb1EE7set_bitEib", metadata !160, i32 1821, metadata !1049, i1 false, i1 false, i32 0, i32 0, null, i32 256, i1 false, null, null, i32 0, metadata !127, i32 1821} ; [ DW_TAG_subprogram ]
!1054 = metadata !{i32 786478, i32 0, metadata !877, metadata !"get_bit", metadata !"get_bit", metadata !"_ZNK11ap_int_baseILi58ELb1ELb1EE7get_bitEi", metadata !160, i32 1826, metadata !1045, i1 false, i1 false, i32 0, i32 0, null, i32 256, i1 false, null, null, i32 0, metadata !127, i32 1826} ; [ DW_TAG_subprogram ]
!1055 = metadata !{i32 786478, i32 0, metadata !877, metadata !"b_not", metadata !"b_not", metadata !"_ZN11ap_int_baseILi58ELb1ELb1EE5b_notEv", metadata !160, i32 1831, metadata !881, i1 false, i1 false, i32 0, i32 0, null, i32 256, i1 false, null, null, i32 0, metadata !127, i32 1831} ; [ DW_TAG_subprogram ]
!1056 = metadata !{i32 786478, i32 0, metadata !877, metadata !"countLeadingZeros", metadata !"countLeadingZeros", metadata !"_ZN11ap_int_baseILi58ELb1ELb1EE17countLeadingZerosEv", metadata !160, i32 1838, metadata !1057, i1 false, i1 false, i32 0, i32 0, null, i32 256, i1 false, null, null, i32 0, metadata !127, i32 1838} ; [ DW_TAG_subprogram ]
!1057 = metadata !{i32 786453, i32 0, metadata !"", i32 0, i32 0, i64 0, i64 0, i64 0, i32 0, null, metadata !1058, i32 0, i32 0} ; [ DW_TAG_subroutine_type ]
!1058 = metadata !{metadata !136, metadata !883}
!1059 = metadata !{i32 786478, i32 0, metadata !877, metadata !"operator++", metadata !"operator++", metadata !"_ZN11ap_int_baseILi58ELb1ELb1EEppEv", metadata !160, i32 1895, metadata !1037, i1 false, i1 false, i32 0, i32 0, null, i32 256, i1 false, null, null, i32 0, metadata !127, i32 1895} ; [ DW_TAG_subprogram ]
!1060 = metadata !{i32 786478, i32 0, metadata !877, metadata !"operator--", metadata !"operator--", metadata !"_ZN11ap_int_baseILi58ELb1ELb1EEmmEv", metadata !160, i32 1899, metadata !1037, i1 false, i1 false, i32 0, i32 0, null, i32 256, i1 false, null, null, i32 0, metadata !127, i32 1899} ; [ DW_TAG_subprogram ]
!1061 = metadata !{i32 786478, i32 0, metadata !877, metadata !"operator++", metadata !"operator++", metadata !"_ZN11ap_int_baseILi58ELb1ELb1EEppEi", metadata !160, i32 1907, metadata !1062, i1 false, i1 false, i32 0, i32 0, null, i32 256, i1 false, null, null, i32 0, metadata !127, i32 1907} ; [ DW_TAG_subprogram ]
!1062 = metadata !{i32 786453, i32 0, metadata !"", i32 0, i32 0, i64 0, i64 0, i64 0, i32 0, null, metadata !1063, i32 0, i32 0} ; [ DW_TAG_subroutine_type ]
!1063 = metadata !{metadata !941, metadata !883, metadata !136}
!1064 = metadata !{i32 786478, i32 0, metadata !877, metadata !"operator--", metadata !"operator--", metadata !"_ZN11ap_int_baseILi58ELb1ELb1EEmmEi", metadata !160, i32 1912, metadata !1062, i1 false, i1 false, i32 0, i32 0, null, i32 256, i1 false, null, null, i32 0, metadata !127, i32 1912} ; [ DW_TAG_subprogram ]
!1065 = metadata !{i32 786478, i32 0, metadata !877, metadata !"operator+", metadata !"operator+", metadata !"_ZNK11ap_int_baseILi58ELb1ELb1EEpsEv", metadata !160, i32 1921, metadata !1066, i1 false, i1 false, i32 0, i32 0, null, i32 256, i1 false, null, null, i32 0, metadata !127, i32 1921} ; [ DW_TAG_subprogram ]
!1066 = metadata !{i32 786453, i32 0, metadata !"", i32 0, i32 0, i64 0, i64 0, i64 0, i32 0, null, metadata !1067, i32 0, i32 0} ; [ DW_TAG_subroutine_type ]
!1067 = metadata !{metadata !877, metadata !994}
!1068 = metadata !{i32 786478, i32 0, metadata !877, metadata !"operator!", metadata !"operator!", metadata !"_ZNK11ap_int_baseILi58ELb1ELb1EEntEv", metadata !160, i32 1927, metadata !996, i1 false, i1 false, i32 0, i32 0, null, i32 256, i1 false, null, null, i32 0, metadata !127, i32 1927} ; [ DW_TAG_subprogram ]
!1069 = metadata !{i32 786478, i32 0, metadata !877, metadata !"operator-", metadata !"operator-", metadata !"_ZNK11ap_int_baseILi58ELb1ELb1EEngEv", metadata !160, i32 1932, metadata !1070, i1 false, i1 false, i32 0, i32 0, null, i32 256, i1 false, null, null, i32 0, metadata !127, i32 1932} ; [ DW_TAG_subprogram ]
!1070 = metadata !{i32 786453, i32 0, metadata !"", i32 0, i32 0, i64 0, i64 0, i64 0, i32 0, null, metadata !1071, i32 0, i32 0} ; [ DW_TAG_subroutine_type ]
!1071 = metadata !{metadata !1072, metadata !994}
!1072 = metadata !{i32 786434, null, metadata !"ap_int_base<59, true, true>", metadata !160, i32 651, i32 0, i32 0, i32 0, i32 4, null, null, i32 0} ; [ DW_TAG_class_type ]
!1073 = metadata !{i32 786478, i32 0, metadata !877, metadata !"range", metadata !"range", metadata !"_ZN11ap_int_baseILi58ELb1ELb1EE5rangeEii", metadata !160, i32 2062, metadata !1074, i1 false, i1 false, i32 0, i32 0, null, i32 256, i1 false, null, null, i32 0, metadata !127, i32 2062} ; [ DW_TAG_subprogram ]
!1074 = metadata !{i32 786453, i32 0, metadata !"", i32 0, i32 0, i64 0, i64 0, i64 0, i32 0, null, metadata !1075, i32 0, i32 0} ; [ DW_TAG_subroutine_type ]
!1075 = metadata !{metadata !1076, metadata !883, metadata !136, metadata !136}
!1076 = metadata !{i32 786434, null, metadata !"ap_range_ref<58, true>", metadata !160, i32 925, i32 0, i32 0, i32 0, i32 4, null, null, i32 0} ; [ DW_TAG_class_type ]
!1077 = metadata !{i32 786478, i32 0, metadata !877, metadata !"operator()", metadata !"operator()", metadata !"_ZN11ap_int_baseILi58ELb1ELb1EEclEii", metadata !160, i32 2068, metadata !1074, i1 false, i1 false, i32 0, i32 0, null, i32 256, i1 false, null, null, i32 0, metadata !127, i32 2068} ; [ DW_TAG_subprogram ]
!1078 = metadata !{i32 786478, i32 0, metadata !877, metadata !"range", metadata !"range", metadata !"_ZNK11ap_int_baseILi58ELb1ELb1EE5rangeEii", metadata !160, i32 2074, metadata !1079, i1 false, i1 false, i32 0, i32 0, null, i32 256, i1 false, null, null, i32 0, metadata !127, i32 2074} ; [ DW_TAG_subprogram ]
!1079 = metadata !{i32 786453, i32 0, metadata !"", i32 0, i32 0, i64 0, i64 0, i64 0, i32 0, null, metadata !1080, i32 0, i32 0} ; [ DW_TAG_subroutine_type ]
!1080 = metadata !{metadata !1076, metadata !994, metadata !136, metadata !136}
!1081 = metadata !{i32 786478, i32 0, metadata !877, metadata !"operator()", metadata !"operator()", metadata !"_ZNK11ap_int_baseILi58ELb1ELb1EEclEii", metadata !160, i32 2080, metadata !1079, i1 false, i1 false, i32 0, i32 0, null, i32 256, i1 false, null, null, i32 0, metadata !127, i32 2080} ; [ DW_TAG_subprogram ]
!1082 = metadata !{i32 786478, i32 0, metadata !877, metadata !"operator[]", metadata !"operator[]", metadata !"_ZN11ap_int_baseILi58ELb1ELb1EEixEi", metadata !160, i32 2099, metadata !1083, i1 false, i1 false, i32 0, i32 0, null, i32 256, i1 false, null, null, i32 0, metadata !127, i32 2099} ; [ DW_TAG_subprogram ]
!1083 = metadata !{i32 786453, i32 0, metadata !"", i32 0, i32 0, i64 0, i64 0, i64 0, i32 0, null, metadata !1084, i32 0, i32 0} ; [ DW_TAG_subroutine_type ]
!1084 = metadata !{metadata !1085, metadata !883, metadata !136}
!1085 = metadata !{i32 786434, null, metadata !"ap_bit_ref<58, true>", metadata !160, i32 1249, i32 0, i32 0, i32 0, i32 4, null, null, i32 0} ; [ DW_TAG_class_type ]
!1086 = metadata !{i32 786478, i32 0, metadata !877, metadata !"operator[]", metadata !"operator[]", metadata !"_ZNK11ap_int_baseILi58ELb1ELb1EEixEi", metadata !160, i32 2113, metadata !1045, i1 false, i1 false, i32 0, i32 0, null, i32 256, i1 false, null, null, i32 0, metadata !127, i32 2113} ; [ DW_TAG_subprogram ]
!1087 = metadata !{i32 786478, i32 0, metadata !877, metadata !"bit", metadata !"bit", metadata !"_ZN11ap_int_baseILi58ELb1ELb1EE3bitEi", metadata !160, i32 2127, metadata !1083, i1 false, i1 false, i32 0, i32 0, null, i32 256, i1 false, null, null, i32 0, metadata !127, i32 2127} ; [ DW_TAG_subprogram ]
!1088 = metadata !{i32 786478, i32 0, metadata !877, metadata !"bit", metadata !"bit", metadata !"_ZNK11ap_int_baseILi58ELb1ELb1EE3bitEi", metadata !160, i32 2141, metadata !1045, i1 false, i1 false, i32 0, i32 0, null, i32 256, i1 false, null, null, i32 0, metadata !127, i32 2141} ; [ DW_TAG_subprogram ]
!1089 = metadata !{i32 786478, i32 0, metadata !877, metadata !"and_reduce", metadata !"and_reduce", metadata !"_ZN11ap_int_baseILi58ELb1ELb1EE10and_reduceEv", metadata !160, i32 2321, metadata !1090, i1 false, i1 false, i32 0, i32 0, null, i32 256, i1 false, null, null, i32 0, metadata !127, i32 2321} ; [ DW_TAG_subprogram ]
!1090 = metadata !{i32 786453, i32 0, metadata !"", i32 0, i32 0, i64 0, i64 0, i64 0, i32 0, null, metadata !1091, i32 0, i32 0} ; [ DW_TAG_subroutine_type ]
!1091 = metadata !{metadata !138, metadata !883}
!1092 = metadata !{i32 786478, i32 0, metadata !877, metadata !"nand_reduce", metadata !"nand_reduce", metadata !"_ZN11ap_int_baseILi58ELb1ELb1EE11nand_reduceEv", metadata !160, i32 2324, metadata !1090, i1 false, i1 false, i32 0, i32 0, null, i32 256, i1 false, null, null, i32 0, metadata !127, i32 2324} ; [ DW_TAG_subprogram ]
!1093 = metadata !{i32 786478, i32 0, metadata !877, metadata !"or_reduce", metadata !"or_reduce", metadata !"_ZN11ap_int_baseILi58ELb1ELb1EE9or_reduceEv", metadata !160, i32 2327, metadata !1090, i1 false, i1 false, i32 0, i32 0, null, i32 256, i1 false, null, null, i32 0, metadata !127, i32 2327} ; [ DW_TAG_subprogram ]
!1094 = metadata !{i32 786478, i32 0, metadata !877, metadata !"nor_reduce", metadata !"nor_reduce", metadata !"_ZN11ap_int_baseILi58ELb1ELb1EE10nor_reduceEv", metadata !160, i32 2330, metadata !1090, i1 false, i1 false, i32 0, i32 0, null, i32 256, i1 false, null, null, i32 0, metadata !127, i32 2330} ; [ DW_TAG_subprogram ]
!1095 = metadata !{i32 786478, i32 0, metadata !877, metadata !"xor_reduce", metadata !"xor_reduce", metadata !"_ZN11ap_int_baseILi58ELb1ELb1EE10xor_reduceEv", metadata !160, i32 2333, metadata !1090, i1 false, i1 false, i32 0, i32 0, null, i32 256, i1 false, null, null, i32 0, metadata !127, i32 2333} ; [ DW_TAG_subprogram ]
!1096 = metadata !{i32 786478, i32 0, metadata !877, metadata !"xnor_reduce", metadata !"xnor_reduce", metadata !"_ZN11ap_int_baseILi58ELb1ELb1EE11xnor_reduceEv", metadata !160, i32 2336, metadata !1090, i1 false, i1 false, i32 0, i32 0, null, i32 256, i1 false, null, null, i32 0, metadata !127, i32 2336} ; [ DW_TAG_subprogram ]
!1097 = metadata !{i32 786478, i32 0, metadata !877, metadata !"and_reduce", metadata !"and_reduce", metadata !"_ZNK11ap_int_baseILi58ELb1ELb1EE10and_reduceEv", metadata !160, i32 2340, metadata !996, i1 false, i1 false, i32 0, i32 0, null, i32 256, i1 false, null, null, i32 0, metadata !127, i32 2340} ; [ DW_TAG_subprogram ]
!1098 = metadata !{i32 786478, i32 0, metadata !877, metadata !"nand_reduce", metadata !"nand_reduce", metadata !"_ZNK11ap_int_baseILi58ELb1ELb1EE11nand_reduceEv", metadata !160, i32 2343, metadata !996, i1 false, i1 false, i32 0, i32 0, null, i32 256, i1 false, null, null, i32 0, metadata !127, i32 2343} ; [ DW_TAG_subprogram ]
!1099 = metadata !{i32 786478, i32 0, metadata !877, metadata !"or_reduce", metadata !"or_reduce", metadata !"_ZNK11ap_int_baseILi58ELb1ELb1EE9or_reduceEv", metadata !160, i32 2346, metadata !996, i1 false, i1 false, i32 0, i32 0, null, i32 256, i1 false, null, null, i32 0, metadata !127, i32 2346} ; [ DW_TAG_subprogram ]
!1100 = metadata !{i32 786478, i32 0, metadata !877, metadata !"nor_reduce", metadata !"nor_reduce", metadata !"_ZNK11ap_int_baseILi58ELb1ELb1EE10nor_reduceEv", metadata !160, i32 2349, metadata !996, i1 false, i1 false, i32 0, i32 0, null, i32 256, i1 false, null, null, i32 0, metadata !127, i32 2349} ; [ DW_TAG_subprogram ]
!1101 = metadata !{i32 786478, i32 0, metadata !877, metadata !"xor_reduce", metadata !"xor_reduce", metadata !"_ZNK11ap_int_baseILi58ELb1ELb1EE10xor_reduceEv", metadata !160, i32 2352, metadata !996, i1 false, i1 false, i32 0, i32 0, null, i32 256, i1 false, null, null, i32 0, metadata !127, i32 2352} ; [ DW_TAG_subprogram ]
!1102 = metadata !{i32 786478, i32 0, metadata !877, metadata !"xnor_reduce", metadata !"xnor_reduce", metadata !"_ZNK11ap_int_baseILi58ELb1ELb1EE11xnor_reduceEv", metadata !160, i32 2355, metadata !996, i1 false, i1 false, i32 0, i32 0, null, i32 256, i1 false, null, null, i32 0, metadata !127, i32 2355} ; [ DW_TAG_subprogram ]
!1103 = metadata !{i32 786478, i32 0, metadata !877, metadata !"to_string", metadata !"to_string", metadata !"_ZNK11ap_int_baseILi58ELb1ELb1EE9to_stringEPci8BaseModeb", metadata !160, i32 2362, metadata !1104, i1 false, i1 false, i32 0, i32 0, null, i32 256, i1 false, null, null, i32 0, metadata !127, i32 2362} ; [ DW_TAG_subprogram ]
!1104 = metadata !{i32 786453, i32 0, metadata !"", i32 0, i32 0, i64 0, i64 0, i64 0, i32 0, null, metadata !1105, i32 0, i32 0} ; [ DW_TAG_subroutine_type ]
!1105 = metadata !{null, metadata !994, metadata !634, metadata !136, metadata !635, metadata !138}
!1106 = metadata !{i32 786478, i32 0, metadata !877, metadata !"to_string", metadata !"to_string", metadata !"_ZNK11ap_int_baseILi58ELb1ELb1EE9to_stringE8BaseModeb", metadata !160, i32 2389, metadata !1107, i1 false, i1 false, i32 0, i32 0, null, i32 256, i1 false, null, null, i32 0, metadata !127, i32 2389} ; [ DW_TAG_subprogram ]
!1107 = metadata !{i32 786453, i32 0, metadata !"", i32 0, i32 0, i64 0, i64 0, i64 0, i32 0, null, metadata !1108, i32 0, i32 0} ; [ DW_TAG_subroutine_type ]
!1108 = metadata !{metadata !634, metadata !994, metadata !635, metadata !138}
!1109 = metadata !{i32 786478, i32 0, metadata !877, metadata !"to_string", metadata !"to_string", metadata !"_ZNK11ap_int_baseILi58ELb1ELb1EE9to_stringEab", metadata !160, i32 2393, metadata !1110, i1 false, i1 false, i32 0, i32 0, null, i32 256, i1 false, null, null, i32 0, metadata !127, i32 2393} ; [ DW_TAG_subprogram ]
!1110 = metadata !{i32 786453, i32 0, metadata !"", i32 0, i32 0, i64 0, i64 0, i64 0, i32 0, null, metadata !1111, i32 0, i32 0} ; [ DW_TAG_subroutine_type ]
!1111 = metadata !{metadata !634, metadata !994, metadata !194, metadata !138}
!1112 = metadata !{metadata !1113, metadata !137, metadata !1114}
!1113 = metadata !{i32 786480, null, metadata !"_AP_W", metadata !136, i64 58, null, i32 0, i32 0} ; [ DW_TAG_template_value_parameter ]
!1114 = metadata !{i32 786480, null, metadata !"_AP_C", metadata !138, i64 1, null, i32 0, i32 0} ; [ DW_TAG_template_value_parameter ]
!1115 = metadata !{i32 786478, i32 0, metadata !748, metadata !"to_int", metadata !"to_int", metadata !"_ZNK13ap_fixed_baseILi58ELi58ELb1EL9ap_q_mode5EL9ap_o_mode3ELi0EE6to_intEv", metadata !115, i32 1101, metadata !1116, i1 false, i1 false, i32 0, i32 0, null, i32 256, i1 false, null, null, i32 0, metadata !127, i32 1101} ; [ DW_TAG_subprogram ]
!1116 = metadata !{i32 786453, i32 0, metadata !"", i32 0, i32 0, i64 0, i64 0, i64 0, i32 0, null, metadata !1117, i32 0, i32 0} ; [ DW_TAG_subroutine_type ]
!1117 = metadata !{metadata !136, metadata !829}
!1118 = metadata !{i32 786478, i32 0, metadata !748, metadata !"to_uint", metadata !"to_uint", metadata !"_ZNK13ap_fixed_baseILi58ELi58ELb1EL9ap_q_mode5EL9ap_o_mode3ELi0EE7to_uintEv", metadata !115, i32 1104, metadata !1119, i1 false, i1 false, i32 0, i32 0, null, i32 256, i1 false, null, null, i32 0, metadata !127, i32 1104} ; [ DW_TAG_subprogram ]
!1119 = metadata !{i32 786453, i32 0, metadata !"", i32 0, i32 0, i64 0, i64 0, i64 0, i32 0, null, metadata !1120, i32 0, i32 0} ; [ DW_TAG_subroutine_type ]
!1120 = metadata !{metadata !213, metadata !829}
!1121 = metadata !{i32 786478, i32 0, metadata !748, metadata !"to_int64", metadata !"to_int64", metadata !"_ZNK13ap_fixed_baseILi58ELi58ELb1EL9ap_q_mode5EL9ap_o_mode3ELi0EE8to_int64Ev", metadata !115, i32 1107, metadata !1122, i1 false, i1 false, i32 0, i32 0, null, i32 256, i1 false, null, null, i32 0, metadata !127, i32 1107} ; [ DW_TAG_subprogram ]
!1122 = metadata !{i32 786453, i32 0, metadata !"", i32 0, i32 0, i64 0, i64 0, i64 0, i32 0, null, metadata !1123, i32 0, i32 0} ; [ DW_TAG_subroutine_type ]
!1123 = metadata !{metadata !225, metadata !829}
!1124 = metadata !{i32 786478, i32 0, metadata !748, metadata !"to_uint64", metadata !"to_uint64", metadata !"_ZNK13ap_fixed_baseILi58ELi58ELb1EL9ap_q_mode5EL9ap_o_mode3ELi0EE9to_uint64Ev", metadata !115, i32 1110, metadata !1125, i1 false, i1 false, i32 0, i32 0, null, i32 256, i1 false, null, null, i32 0, metadata !127, i32 1110} ; [ DW_TAG_subprogram ]
!1125 = metadata !{i32 786453, i32 0, metadata !"", i32 0, i32 0, i64 0, i64 0, i64 0, i32 0, null, metadata !1126, i32 0, i32 0} ; [ DW_TAG_subroutine_type ]
!1126 = metadata !{metadata !230, metadata !829}
!1127 = metadata !{i32 786478, i32 0, metadata !748, metadata !"to_double", metadata !"to_double", metadata !"_ZNK13ap_fixed_baseILi58ELi58ELb1EL9ap_q_mode5EL9ap_o_mode3ELi0EE9to_doubleEv", metadata !115, i32 1113, metadata !1128, i1 false, i1 false, i32 0, i32 0, null, i32 256, i1 false, null, null, i32 0, metadata !127, i32 1113} ; [ DW_TAG_subprogram ]
!1128 = metadata !{i32 786453, i32 0, metadata !"", i32 0, i32 0, i64 0, i64 0, i64 0, i32 0, null, metadata !1129, i32 0, i32 0} ; [ DW_TAG_subroutine_type ]
!1129 = metadata !{metadata !244, metadata !829}
!1130 = metadata !{i32 786478, i32 0, metadata !748, metadata !"to_float", metadata !"to_float", metadata !"_ZNK13ap_fixed_baseILi58ELi58ELb1EL9ap_q_mode5EL9ap_o_mode3ELi0EE8to_floatEv", metadata !115, i32 1166, metadata !1131, i1 false, i1 false, i32 0, i32 0, null, i32 256, i1 false, null, null, i32 0, metadata !127, i32 1166} ; [ DW_TAG_subprogram ]
!1131 = metadata !{i32 786453, i32 0, metadata !"", i32 0, i32 0, i64 0, i64 0, i64 0, i32 0, null, metadata !1132, i32 0, i32 0} ; [ DW_TAG_subroutine_type ]
!1132 = metadata !{metadata !248, metadata !829}
!1133 = metadata !{i32 786478, i32 0, metadata !748, metadata !"to_half", metadata !"to_half", metadata !"_ZNK13ap_fixed_baseILi58ELi58ELb1EL9ap_q_mode5EL9ap_o_mode3ELi0EE7to_halfEv", metadata !115, i32 1204, metadata !1134, i1 false, i1 false, i32 0, i32 0, null, i32 256, i1 false, null, null, i32 0, metadata !127, i32 1204} ; [ DW_TAG_subprogram ]
!1134 = metadata !{i32 786453, i32 0, metadata !"", i32 0, i32 0, i64 0, i64 0, i64 0, i32 0, null, metadata !1135, i32 0, i32 0} ; [ DW_TAG_subroutine_type ]
!1135 = metadata !{metadata !252, metadata !829}
!1136 = metadata !{i32 786478, i32 0, metadata !748, metadata !"operator double", metadata !"operator double", metadata !"_ZNK13ap_fixed_baseILi58ELi58ELb1EL9ap_q_mode5EL9ap_o_mode3ELi0EEcvdEv", metadata !115, i32 1254, metadata !1128, i1 false, i1 false, i32 0, i32 0, null, i32 256, i1 false, null, null, i32 0, metadata !127, i32 1254} ; [ DW_TAG_subprogram ]
!1137 = metadata !{i32 786478, i32 0, metadata !748, metadata !"operator float", metadata !"operator float", metadata !"_ZNK13ap_fixed_baseILi58ELi58ELb1EL9ap_q_mode5EL9ap_o_mode3ELi0EEcvfEv", metadata !115, i32 1258, metadata !1131, i1 false, i1 false, i32 0, i32 0, null, i32 256, i1 false, null, null, i32 0, metadata !127, i32 1258} ; [ DW_TAG_subprogram ]
!1138 = metadata !{i32 786478, i32 0, metadata !748, metadata !"operator half", metadata !"operator half", metadata !"_ZNK13ap_fixed_baseILi58ELi58ELb1EL9ap_q_mode5EL9ap_o_mode3ELi0EEcvDhEv", metadata !115, i32 1261, metadata !1134, i1 false, i1 false, i32 0, i32 0, null, i32 256, i1 false, null, null, i32 0, metadata !127, i32 1261} ; [ DW_TAG_subprogram ]
!1139 = metadata !{i32 786478, i32 0, metadata !748, metadata !"operator _Bool", metadata !"operator _Bool", metadata !"_ZNK13ap_fixed_baseILi58ELi58ELb1EL9ap_q_mode5EL9ap_o_mode3ELi0EEcvbEv", metadata !115, i32 1265, metadata !1140, i1 false, i1 false, i32 0, i32 0, null, i32 256, i1 false, null, null, i32 0, metadata !127, i32 1265} ; [ DW_TAG_subprogram ]
!1140 = metadata !{i32 786453, i32 0, metadata !"", i32 0, i32 0, i64 0, i64 0, i64 0, i32 0, null, metadata !1141, i32 0, i32 0} ; [ DW_TAG_subroutine_type ]
!1141 = metadata !{metadata !138, metadata !829}
!1142 = metadata !{i32 786478, i32 0, metadata !748, metadata !"operator char", metadata !"operator char", metadata !"_ZNK13ap_fixed_baseILi58ELi58ELb1EL9ap_q_mode5EL9ap_o_mode3ELi0EEcvcEv", metadata !115, i32 1269, metadata !1143, i1 false, i1 false, i32 0, i32 0, null, i32 256, i1 false, null, null, i32 0, metadata !127, i32 1269} ; [ DW_TAG_subprogram ]
!1143 = metadata !{i32 786453, i32 0, metadata !"", i32 0, i32 0, i64 0, i64 0, i64 0, i32 0, null, metadata !1144, i32 0, i32 0} ; [ DW_TAG_subroutine_type ]
!1144 = metadata !{metadata !190, metadata !829}
!1145 = metadata !{i32 786478, i32 0, metadata !748, metadata !"operator signed char", metadata !"operator signed char", metadata !"_ZNK13ap_fixed_baseILi58ELi58ELb1EL9ap_q_mode5EL9ap_o_mode3ELi0EEcvaEv", metadata !115, i32 1273, metadata !1146, i1 false, i1 false, i32 0, i32 0, null, i32 256, i1 false, null, null, i32 0, metadata !127, i32 1273} ; [ DW_TAG_subprogram ]
!1146 = metadata !{i32 786453, i32 0, metadata !"", i32 0, i32 0, i64 0, i64 0, i64 0, i32 0, null, metadata !1147, i32 0, i32 0} ; [ DW_TAG_subroutine_type ]
!1147 = metadata !{metadata !194, metadata !829}
!1148 = metadata !{i32 786478, i32 0, metadata !748, metadata !"operator unsigned char", metadata !"operator unsigned char", metadata !"_ZNK13ap_fixed_baseILi58ELi58ELb1EL9ap_q_mode5EL9ap_o_mode3ELi0EEcvhEv", metadata !115, i32 1277, metadata !1149, i1 false, i1 false, i32 0, i32 0, null, i32 256, i1 false, null, null, i32 0, metadata !127, i32 1277} ; [ DW_TAG_subprogram ]
!1149 = metadata !{i32 786453, i32 0, metadata !"", i32 0, i32 0, i64 0, i64 0, i64 0, i32 0, null, metadata !1150, i32 0, i32 0} ; [ DW_TAG_subroutine_type ]
!1150 = metadata !{metadata !198, metadata !829}
!1151 = metadata !{i32 786478, i32 0, metadata !748, metadata !"operator short", metadata !"operator short", metadata !"_ZNK13ap_fixed_baseILi58ELi58ELb1EL9ap_q_mode5EL9ap_o_mode3ELi0EEcvsEv", metadata !115, i32 1281, metadata !1152, i1 false, i1 false, i32 0, i32 0, null, i32 256, i1 false, null, null, i32 0, metadata !127, i32 1281} ; [ DW_TAG_subprogram ]
!1152 = metadata !{i32 786453, i32 0, metadata !"", i32 0, i32 0, i64 0, i64 0, i64 0, i32 0, null, metadata !1153, i32 0, i32 0} ; [ DW_TAG_subroutine_type ]
!1153 = metadata !{metadata !202, metadata !829}
!1154 = metadata !{i32 786478, i32 0, metadata !748, metadata !"operator unsigned short", metadata !"operator unsigned short", metadata !"_ZNK13ap_fixed_baseILi58ELi58ELb1EL9ap_q_mode5EL9ap_o_mode3ELi0EEcvtEv", metadata !115, i32 1285, metadata !1155, i1 false, i1 false, i32 0, i32 0, null, i32 256, i1 false, null, null, i32 0, metadata !127, i32 1285} ; [ DW_TAG_subprogram ]
!1155 = metadata !{i32 786453, i32 0, metadata !"", i32 0, i32 0, i64 0, i64 0, i64 0, i32 0, null, metadata !1156, i32 0, i32 0} ; [ DW_TAG_subroutine_type ]
!1156 = metadata !{metadata !206, metadata !829}
!1157 = metadata !{i32 786478, i32 0, metadata !748, metadata !"operator int", metadata !"operator int", metadata !"_ZNK13ap_fixed_baseILi58ELi58ELb1EL9ap_q_mode5EL9ap_o_mode3ELi0EEcviEv", metadata !115, i32 1290, metadata !1116, i1 false, i1 false, i32 0, i32 0, null, i32 256, i1 false, null, null, i32 0, metadata !127, i32 1290} ; [ DW_TAG_subprogram ]
!1158 = metadata !{i32 786478, i32 0, metadata !748, metadata !"operator unsigned int", metadata !"operator unsigned int", metadata !"_ZNK13ap_fixed_baseILi58ELi58ELb1EL9ap_q_mode5EL9ap_o_mode3ELi0EEcvjEv", metadata !115, i32 1294, metadata !1119, i1 false, i1 false, i32 0, i32 0, null, i32 256, i1 false, null, null, i32 0, metadata !127, i32 1294} ; [ DW_TAG_subprogram ]
!1159 = metadata !{i32 786478, i32 0, metadata !748, metadata !"operator long", metadata !"operator long", metadata !"_ZNK13ap_fixed_baseILi58ELi58ELb1EL9ap_q_mode5EL9ap_o_mode3ELi0EEcvlEv", metadata !115, i32 1299, metadata !1160, i1 false, i1 false, i32 0, i32 0, null, i32 256, i1 false, null, null, i32 0, metadata !127, i32 1299} ; [ DW_TAG_subprogram ]
!1160 = metadata !{i32 786453, i32 0, metadata !"", i32 0, i32 0, i64 0, i64 0, i64 0, i32 0, null, metadata !1161, i32 0, i32 0} ; [ DW_TAG_subroutine_type ]
!1161 = metadata !{metadata !217, metadata !829}
!1162 = metadata !{i32 786478, i32 0, metadata !748, metadata !"operator unsigned long", metadata !"operator unsigned long", metadata !"_ZNK13ap_fixed_baseILi58ELi58ELb1EL9ap_q_mode5EL9ap_o_mode3ELi0EEcvmEv", metadata !115, i32 1303, metadata !1163, i1 false, i1 false, i32 0, i32 0, null, i32 256, i1 false, null, null, i32 0, metadata !127, i32 1303} ; [ DW_TAG_subprogram ]
!1163 = metadata !{i32 786453, i32 0, metadata !"", i32 0, i32 0, i64 0, i64 0, i64 0, i32 0, null, metadata !1164, i32 0, i32 0} ; [ DW_TAG_subroutine_type ]
!1164 = metadata !{metadata !221, metadata !829}
!1165 = metadata !{i32 786478, i32 0, metadata !748, metadata !"operator unsigned long long", metadata !"operator unsigned long long", metadata !"_ZNK13ap_fixed_baseILi58ELi58ELb1EL9ap_q_mode5EL9ap_o_mode3ELi0EEcvyEv", metadata !115, i32 1316, metadata !1166, i1 false, i1 false, i32 0, i32 0, null, i32 256, i1 false, null, null, i32 0, metadata !127, i32 1316} ; [ DW_TAG_subprogram ]
!1166 = metadata !{i32 786453, i32 0, metadata !"", i32 0, i32 0, i64 0, i64 0, i64 0, i32 0, null, metadata !1167, i32 0, i32 0} ; [ DW_TAG_subroutine_type ]
!1167 = metadata !{metadata !231, metadata !829}
!1168 = metadata !{i32 786478, i32 0, metadata !748, metadata !"operator long long", metadata !"operator long long", metadata !"_ZNK13ap_fixed_baseILi58ELi58ELb1EL9ap_q_mode5EL9ap_o_mode3ELi0EEcvxEv", metadata !115, i32 1320, metadata !1169, i1 false, i1 false, i32 0, i32 0, null, i32 256, i1 false, null, null, i32 0, metadata !127, i32 1320} ; [ DW_TAG_subprogram ]
!1169 = metadata !{i32 786453, i32 0, metadata !"", i32 0, i32 0, i64 0, i64 0, i64 0, i32 0, null, metadata !1170, i32 0, i32 0} ; [ DW_TAG_subroutine_type ]
!1170 = metadata !{metadata !226, metadata !829}
!1171 = metadata !{i32 786478, i32 0, metadata !748, metadata !"length", metadata !"length", metadata !"_ZNK13ap_fixed_baseILi58ELi58ELb1EL9ap_q_mode5EL9ap_o_mode3ELi0EE6lengthEv", metadata !115, i32 1324, metadata !1116, i1 false, i1 false, i32 0, i32 0, null, i32 256, i1 false, null, null, i32 0, metadata !127, i32 1324} ; [ DW_TAG_subprogram ]
!1172 = metadata !{i32 786478, i32 0, metadata !748, metadata !"countLeadingZeros", metadata !"countLeadingZeros", metadata !"_ZN13ap_fixed_baseILi58ELi58ELb1EL9ap_q_mode5EL9ap_o_mode3ELi0EE17countLeadingZerosEv", metadata !115, i32 1328, metadata !1173, i1 false, i1 false, i32 0, i32 0, null, i32 256, i1 false, null, null, i32 0, metadata !127, i32 1328} ; [ DW_TAG_subprogram ]
!1173 = metadata !{i32 786453, i32 0, metadata !"", i32 0, i32 0, i64 0, i64 0, i64 0, i32 0, null, metadata !1174, i32 0, i32 0} ; [ DW_TAG_subroutine_type ]
!1174 = metadata !{metadata !136, metadata !764}
!1175 = metadata !{i32 786478, i32 0, metadata !748, metadata !"operator++", metadata !"operator++", metadata !"_ZN13ap_fixed_baseILi58ELi58ELb1EL9ap_q_mode5EL9ap_o_mode3ELi0EEppEv", metadata !115, i32 1429, metadata !1176, i1 false, i1 false, i32 0, i32 0, null, i32 256, i1 false, null, null, i32 0, metadata !127, i32 1429} ; [ DW_TAG_subprogram ]
!1176 = metadata !{i32 786453, i32 0, metadata !"", i32 0, i32 0, i64 0, i64 0, i64 0, i32 0, null, metadata !1177, i32 0, i32 0} ; [ DW_TAG_subroutine_type ]
!1177 = metadata !{metadata !857, metadata !764}
!1178 = metadata !{i32 786478, i32 0, metadata !748, metadata !"operator--", metadata !"operator--", metadata !"_ZN13ap_fixed_baseILi58ELi58ELb1EL9ap_q_mode5EL9ap_o_mode3ELi0EEmmEv", metadata !115, i32 1433, metadata !1176, i1 false, i1 false, i32 0, i32 0, null, i32 256, i1 false, null, null, i32 0, metadata !127, i32 1433} ; [ DW_TAG_subprogram ]
!1179 = metadata !{i32 786478, i32 0, metadata !748, metadata !"operator++", metadata !"operator++", metadata !"_ZN13ap_fixed_baseILi58ELi58ELb1EL9ap_q_mode5EL9ap_o_mode3ELi0EEppEi", metadata !115, i32 1441, metadata !1180, i1 false, i1 false, i32 0, i32 0, null, i32 256, i1 false, null, null, i32 0, metadata !127, i32 1441} ; [ DW_TAG_subprogram ]
